(dp0
S'history'
p1
ccopy_reg
_reconstructor
p2
(cdeap.tools.support
History
p3
c__builtin__
object
p4
Ntp5
Rp6
(dp7
S'genealogy_tree'
p8
(dp9
I1
(tsI2
(tsI3
(tsI4
(tsI5
(tsI6
(tsI7
(tsI8
(tsI9
(tsI10
(tsI11
(I1
I2
I3
I4
I5
I6
I7
I8
I9
I10
I1
I2
I3
I4
I5
I6
I7
I8
I9
I10
tp10
sI12
g10
sI13
g10
sI14
g10
sI15
g10
sI16
g10
sI17
g10
sI18
g10
sI19
g10
sI20
g10
sI21
g10
sI22
g10
sI23
g10
sI24
g10
sI25
g10
sI26
g10
sI27
g10
sI28
g10
sI29
g10
sI30
g10
sI31
(I30
I15
I18
I16
I11
I22
I29
I15
I24
I17
I30
I15
I18
I16
I11
I22
I29
I15
I24
I17
tp11
sI32
g11
sI33
g11
sI34
g11
sI35
g11
sI36
g11
sI37
g11
sI38
g11
sI39
g11
sI40
g11
sI41
g11
sI42
g11
sI43
g11
sI44
g11
sI45
g11
sI46
g11
sI47
g11
sI48
g11
sI49
g11
sI50
g11
sI51
(I41
I33
I41
I39
I46
I38
I42
I50
I45
I43
I41
I33
I41
I39
I46
I38
I42
I50
I45
I43
tp12
sI52
g12
sI53
g12
sI54
g12
sI55
g12
sI56
g12
sI57
g12
sI58
g12
sI59
g12
sI60
g12
sI61
g12
sI62
g12
sI63
g12
sI64
g12
sI65
g12
sI66
g12
sI67
g12
sI68
g12
sI69
g12
sI70
g12
sI71
(I65
I54
I52
I58
I59
I68
I67
I65
I67
I55
I65
I54
I52
I58
I59
I68
I67
I65
I67
I55
tp13
sI72
g13
sI73
g13
sI74
g13
sI75
g13
sI76
g13
sI77
g13
sI78
g13
sI79
g13
sI80
g13
sI81
g13
sI82
g13
sI83
g13
sI84
g13
sI85
g13
sI86
g13
sI87
g13
sI88
g13
sI89
g13
sI90
g13
sI91
(I85
I75
I90
I72
I81
I73
I73
I86
I72
I81
I85
I75
I90
I72
I81
I73
I73
I86
I72
I81
tp14
sI92
g14
sI93
g14
sI94
g14
sI95
g14
sI96
g14
sI97
g14
sI98
g14
sI99
g14
sI100
g14
sI101
g14
sI102
g14
sI103
g14
sI104
g14
sI105
g14
sI106
g14
sI107
g14
sI108
g14
sI109
g14
sI110
g14
sI111
(I93
I97
I107
I100
I106
I97
I92
I107
I101
I99
I93
I97
I107
I100
I106
I97
I92
I107
I101
I99
tp15
sI112
g15
sI113
g15
sI114
g15
sI115
g15
sI116
g15
sI117
g15
sI118
g15
sI119
g15
sI120
g15
sI121
g15
sI122
g15
sI123
g15
sI124
g15
sI125
g15
sI126
g15
sI127
g15
sI128
g15
sI129
g15
sI130
g15
sI131
(I121
I119
I118
I115
I129
I119
I114
I118
I116
I114
I121
I119
I118
I115
I129
I119
I114
I118
I116
I114
tp16
sI132
g16
sI133
g16
sI134
g16
sI135
g16
sI136
g16
sI137
g16
sI138
g16
sI139
g16
sI140
g16
sI141
g16
sI142
g16
sI143
g16
sI144
g16
sI145
g16
sI146
g16
sI147
g16
sI148
g16
sI149
g16
sI150
g16
sI151
(I145
I142
I136
I138
I135
I146
I136
I148
I143
I138
I145
I142
I136
I138
I135
I146
I136
I148
I143
I138
tp17
sI152
g17
sI153
g17
sI154
g17
sI155
g17
sI156
g17
sI157
g17
sI158
g17
sI159
g17
sI160
g17
sI161
g17
sI162
g17
sI163
g17
sI164
g17
sI165
g17
sI166
g17
sI167
g17
sI168
g17
sI169
g17
sI170
g17
sI171
(I152
I155
I158
I152
I162
I151
I152
I152
I170
I160
I152
I155
I158
I152
I162
I151
I152
I152
I170
I160
tp18
sI172
g18
sI173
g18
sI174
g18
sI175
g18
sI176
g18
sI177
g18
sI178
g18
sI179
g18
sI180
g18
sI181
g18
sI182
g18
sI183
g18
sI184
g18
sI185
g18
sI186
g18
sI187
g18
sI188
g18
sI189
g18
sI190
g18
ssS'genealogy_index'
p19
I190
sS'genealogy_history'
p20
(dp21
I1
g2
(cbluepyopt.deapext.optimisations
WSListIndividual
p22
c__builtin__
list
p23
(lp24
F0.13436424411240122
aF0.8474337369372327
aF0.07637746189766141
aF0.0002550690257394217
aF0.004954350870919409
aF0.02274980770704254
aF658.5611132683077
atp25
Rp26
(dp27
S'history_index'
p28
I1
sS'fitness'
p29
g2
(cbluepyopt.deapext.optimisations
WeightedSumFitness
p30
g4
Ntp31
Rp32
(dp33
S'weights'
p34
(lp35
F-1.0
aF-1.0
aF-1.0
aF-1.0
aF-1.0
aF-1.0
aF-1.0
aF-1.0
aF-1.0
aF-1.0
aF-1.0
aF-1.0
aF-1.0
aF-1.0
aF-1.0
aF-1.0
aF-1.0
aF-1.0
aF-1.0
aF-1.0
aF-1.0
aF-1.0
aF-1.0
aF-1.0
aF-1.0
aF-1.0
aF-1.0
aF-1.0
aF-1.0
aF-1.0
aF-1.0
aF-1.0
aF-1.0
aF-1.0
aF-1.0
asS'wvalues'
p36
(F-250.0
F-250.0
F-250.0
F-250.0
F-250.0
F-250.0
F-250.0
F-250.0
F-250.0
F-250.0
F-250.0
F-250.0
F-250.0
F-250.0
F-250.0
F-250.0
F-250.0
F-250.0
F-250.0
F-250.0
F-250.0
F-250.0
F-250.0
F-250.0
F-250.0
F-250.0
F-250.0
F-250.0
F-250.0
F-250.0
F-250.0
F-250.0
F-100.0
F-250.0
F-250.0
tp37
sbsbsI2
g2
(g22
g23
(lp38
F0.7887233511355132
aF0.0938595867742349
aF0.002834747652200631
aF0.0008357651039198697
aF0.004327670679050534
aF0.03823286408166813
aF22.06393228408848
atp39
Rp40
(dp41
g28
I2
sg29
g2
(g30
g4
Ntp42
Rp43
(dp44
g34
(lp45
F-1.0
aF-1.0
aF-1.0
aF-1.0
aF-1.0
aF-1.0
aF-1.0
aF-1.0
aF-1.0
aF-1.0
aF-1.0
aF-1.0
aF-1.0
aF-1.0
aF-1.0
aF-1.0
aF-1.0
aF-1.0
aF-1.0
aF-1.0
aF-1.0
aF-1.0
aF-1.0
aF-1.0
aF-1.0
aF-1.0
aF-1.0
aF-1.0
aF-1.0
aF-1.0
aF-1.0
aF-1.0
aF-1.0
aF-1.0
aF-1.0
asg36
(F-6.080696260216634
F-3.8226139088150872
F-0.8202412317354136
F-5.798255868086008
F-6.419454314442478
F-2.617373206266901
F-13.814616755813285
F-7.155824806096171
F-0.11228911035921439
F-2.175856409218897
F-1.4679111665815399
F-26.18227766852073
F-1.607127176808393
F-16.461352657009826
F-2.486914300142021
F-2.6444989921331596
F-1.8382352941864442
F-4.534410654988272
F-4.939192964732908
F-4.066920219790546
F-5.9631838325710715
F-7.30113786030928
F-0.7099993266643222
F-8.720400409385528
F-7.384758913348111
F-2.046349037015709
F-4.674033917187294
F-7.835310937651459
F-0.9443462712104019
F-2.3322953409863967
F-1.3999999999994088
F-2.7459415563257705
F-0.0
F-250.0
F-250.0
tp46
sbsbsI3
g2
(g22
g23
(lp47
F0.4453871940548014
aF0.7215400323407826
aF0.022876222127045265
aF0.0009452706955539223
aF0.009014274576114836
aF0.0020142041601609
aF44.93694377359158
atp48
Rp49
(dp50
g28
I3
sg29
g2
(g30
g4
Ntp51
Rp52
(dp53
g34
(lp54
F-1.0
aF-1.0
aF-1.0
aF-1.0
aF-1.0
aF-1.0
aF-1.0
aF-1.0
aF-1.0
aF-1.0
aF-1.0
aF-1.0
aF-1.0
aF-1.0
aF-1.0
aF-1.0
aF-1.0
aF-1.0
aF-1.0
aF-1.0
aF-1.0
aF-1.0
aF-1.0
aF-1.0
aF-1.0
aF-1.0
aF-1.0
aF-1.0
aF-1.0
aF-1.0
aF-1.0
aF-1.0
aF-1.0
aF-1.0
aF-1.0
asg36
(F-250.0
F-250.0
F-250.0
F-250.0
F-250.0
F-250.0
F-250.0
F-250.0
F-250.0
F-250.0
F-250.0
F-250.0
F-250.0
F-250.0
F-250.0
F-250.0
F-250.0
F-250.0
F-250.0
F-250.0
F-250.0
F-250.0
F-250.0
F-250.0
F-250.0
F-250.0
F-250.0
F-250.0
F-250.0
F-250.0
F-2.5999999999996817
F-1.2508116226099824
F-0.0
F-250.0
F-250.0
tp55
sbsbsI4
g2
(g22
g23
(lp56
F0.5414124727934966
aF0.9391491627785106
aF0.03812042376882124
aF0.00021659939713061338
aF0.004221165755827173
aF0.0019375189849559632
aF237.25783294757434
atp57
Rp58
(dp59
g28
I4
sg29
g2
(g30
g4
Ntp60
Rp61
(dp62
g34
(lp63
F-1.0
aF-1.0
aF-1.0
aF-1.0
aF-1.0
aF-1.0
aF-1.0
aF-1.0
aF-1.0
aF-1.0
aF-1.0
aF-1.0
aF-1.0
aF-1.0
aF-1.0
aF-1.0
aF-1.0
aF-1.0
aF-1.0
aF-1.0
aF-1.0
aF-1.0
aF-1.0
aF-1.0
aF-1.0
aF-1.0
aF-1.0
aF-1.0
aF-1.0
aF-1.0
aF-1.0
aF-1.0
aF-1.0
aF-1.0
aF-1.0
asg36
(F-250.0
F-250.0
F-250.0
F-250.0
F-250.0
F-250.0
F-250.0
F-250.0
F-250.0
F-250.0
F-250.0
F-250.0
F-250.0
F-250.0
F-250.0
F-250.0
F-250.0
F-250.0
F-250.0
F-250.0
F-250.0
F-250.0
F-250.0
F-250.0
F-250.0
F-250.0
F-250.0
F-250.0
F-250.0
F-250.0
F-2.799999999999727
F-0.7581026925578833
F-0.0
F-250.0
F-250.0
tp64
sbsbsI5
g2
(g22
g23
(lp65
F0.43788759365057206
aF0.49581224138185065
aF0.023308445025757265
aF0.0002308665415409843
aF0.0021878103733768864
aF0.023250371554017813
aF303.9859822986759
atp66
Rp67
(dp68
g28
I5
sg29
g2
(g30
g4
Ntp69
Rp70
(dp71
g34
(lp72
F-1.0
aF-1.0
aF-1.0
aF-1.0
aF-1.0
aF-1.0
aF-1.0
aF-1.0
aF-1.0
aF-1.0
aF-1.0
aF-1.0
aF-1.0
aF-1.0
aF-1.0
aF-1.0
aF-1.0
aF-1.0
aF-1.0
aF-1.0
aF-1.0
aF-1.0
aF-1.0
aF-1.0
aF-1.0
aF-1.0
aF-1.0
aF-1.0
aF-1.0
aF-1.0
aF-1.0
aF-1.0
aF-1.0
aF-1.0
aF-1.0
asg36
(F-250.0
F-250.0
F-250.0
F-250.0
F-250.0
F-250.0
F-250.0
F-250.0
F-250.0
F-250.0
F-250.0
F-250.0
F-250.0
F-250.0
F-250.0
F-250.0
F-250.0
F-250.0
F-250.0
F-250.0
F-250.0
F-250.0
F-250.0
F-250.0
F-250.0
F-250.0
F-250.0
F-250.0
F-250.0
F-250.0
F-2.5999999999996817
F-0.5734012954547965
F-0.0
F-250.0
F-250.0
tp73
sbsbsI6
g2
(g22
g23
(lp74
F0.021489705265908876
aF0.8375779756625729
aF0.05564543226524335
aF0.0006422943629324456
aF0.001859062658947177
aF0.04963089890271523
aF862.747598219384
atp75
Rp76
(dp77
g28
I6
sg29
g2
(g30
g4
Ntp78
Rp79
(dp80
g34
(lp81
F-1.0
aF-1.0
aF-1.0
aF-1.0
aF-1.0
aF-1.0
aF-1.0
aF-1.0
aF-1.0
aF-1.0
aF-1.0
aF-1.0
aF-1.0
aF-1.0
aF-1.0
aF-1.0
aF-1.0
aF-1.0
aF-1.0
aF-1.0
aF-1.0
aF-1.0
aF-1.0
aF-1.0
aF-1.0
aF-1.0
aF-1.0
aF-1.0
aF-1.0
aF-1.0
aF-1.0
aF-1.0
aF-1.0
aF-1.0
aF-1.0
asg36
(F-250.0
F-250.0
F-250.0
F-250.0
F-250.0
F-250.0
F-250.0
F-250.0
F-250.0
F-250.0
F-250.0
F-250.0
F-250.0
F-250.0
F-250.0
F-250.0
F-250.0
F-250.0
F-250.0
F-250.0
F-250.0
F-250.0
F-250.0
F-250.0
F-250.0
F-250.0
F-250.0
F-250.0
F-250.0
F-250.0
F-250.0
F-250.0
F-100.0
F-250.0
F-250.0
tp82
sbsbsI7
g2
(g22
g23
(lp83
F0.12088995980580641
aF0.3326951853601291
aF0.07214844075832684
aF0.0007111917696952796
aF0.009364405867994597
aF0.021394296498090055
aF833.4349794088405
atp84
Rp85
(dp86
g28
I7
sg29
g2
(g30
g4
Ntp87
Rp88
(dp89
g34
(lp90
F-1.0
aF-1.0
aF-1.0
aF-1.0
aF-1.0
aF-1.0
aF-1.0
aF-1.0
aF-1.0
aF-1.0
aF-1.0
aF-1.0
aF-1.0
aF-1.0
aF-1.0
aF-1.0
aF-1.0
aF-1.0
aF-1.0
aF-1.0
aF-1.0
aF-1.0
aF-1.0
aF-1.0
aF-1.0
aF-1.0
aF-1.0
aF-1.0
aF-1.0
aF-1.0
aF-1.0
aF-1.0
aF-1.0
aF-1.0
aF-1.0
asg36
(F-250.0
F-250.0
F-250.0
F-250.0
F-250.0
F-250.0
F-250.0
F-250.0
F-250.0
F-250.0
F-250.0
F-250.0
F-250.0
F-250.0
F-250.0
F-250.0
F-250.0
F-250.0
F-250.0
F-250.0
F-250.0
F-250.0
F-250.0
F-250.0
F-250.0
F-250.0
F-250.0
F-250.0
F-250.0
F-250.0
F-2.399999999999636
F-6.555049090601709
F-0.0
F-250.0
F-250.0
tp91
sbsbsI8
g2
(g22
g23
(lp92
F0.670305566414071
aF0.3033685109329176
aF0.05875806061435595
aF0.0008824790008318577
aF0.008461974184283128
aF0.025511549118690222
aF597.2222128229007
atp93
Rp94
(dp95
g28
I8
sg29
g2
(g30
g4
Ntp96
Rp97
(dp98
g34
(lp99
F-1.0
aF-1.0
aF-1.0
aF-1.0
aF-1.0
aF-1.0
aF-1.0
aF-1.0
aF-1.0
aF-1.0
aF-1.0
aF-1.0
aF-1.0
aF-1.0
aF-1.0
aF-1.0
aF-1.0
aF-1.0
aF-1.0
aF-1.0
aF-1.0
aF-1.0
aF-1.0
aF-1.0
aF-1.0
aF-1.0
aF-1.0
aF-1.0
aF-1.0
aF-1.0
aF-1.0
aF-1.0
aF-1.0
aF-1.0
aF-1.0
asg36
(F-250.0
F-250.0
F-250.0
F-250.0
F-250.0
F-250.0
F-250.0
F-250.0
F-250.0
F-250.0
F-3.5827361597343543
F-250.0
F-250.0
F-250.0
F-250.0
F-3.339440145653008
F-3.0882352941867284
F-11.47204282141317
F-250.0
F-63.15901360489871
F-250.0
F-250.0
F-250.0
F-250.0
F-250.0
F-250.0
F-250.0
F-250.0
F-250.0
F-250.0
F-2.399999999999636
F-1.6650528025834332
F-0.0
F-250.0
F-250.0
tp100
sbsbsI9
g2
(g22
g23
(lp101
F0.034525830151341586
aF0.24273997354306764
aF0.07974042475543029
aF0.00041431399930077427
aF0.0017300740157905094
aF0.027665538688713576
aF708.9799468243189
atp102
Rp103
(dp104
g28
I9
sg29
g2
(g30
g4
Ntp105
Rp106
(dp107
g34
(lp108
F-1.0
aF-1.0
aF-1.0
aF-1.0
aF-1.0
aF-1.0
aF-1.0
aF-1.0
aF-1.0
aF-1.0
aF-1.0
aF-1.0
aF-1.0
aF-1.0
aF-1.0
aF-1.0
aF-1.0
aF-1.0
aF-1.0
aF-1.0
aF-1.0
aF-1.0
aF-1.0
aF-1.0
aF-1.0
aF-1.0
aF-1.0
aF-1.0
aF-1.0
aF-1.0
aF-1.0
aF-1.0
aF-1.0
aF-1.0
aF-1.0
asg36
(F-250.0
F-250.0
F-250.0
F-250.0
F-250.0
F-250.0
F-250.0
F-250.0
F-250.0
F-250.0
F-250.0
F-250.0
F-250.0
F-250.0
F-250.0
F-250.0
F-250.0
F-250.0
F-250.0
F-250.0
F-250.0
F-250.0
F-250.0
F-250.0
F-250.0
F-250.0
F-250.0
F-250.0
F-250.0
F-250.0
F-250.0
F-250.0
F-100.0
F-250.0
F-250.0
tp109
sbsbsI10
g2
(g22
g23
(lp110
F0.6744858305023272
aF0.3747030205016403
aF0.04389616300445631
aF0.0005084264882499819
aF0.007784426150001458
aF0.02628645167185069
aF405.38999306494156
atp111
Rp112
(dp113
g28
I10
sg29
g2
(g30
g4
Ntp114
Rp115
(dp116
g34
(lp117
F-1.0
aF-1.0
aF-1.0
aF-1.0
aF-1.0
aF-1.0
aF-1.0
aF-1.0
aF-1.0
aF-1.0
aF-1.0
aF-1.0
aF-1.0
aF-1.0
aF-1.0
aF-1.0
aF-1.0
aF-1.0
aF-1.0
aF-1.0
aF-1.0
aF-1.0
aF-1.0
aF-1.0
aF-1.0
aF-1.0
aF-1.0
aF-1.0
aF-1.0
aF-1.0
aF-1.0
aF-1.0
aF-1.0
aF-1.0
aF-1.0
asg36
(F-250.0
F-250.0
F-250.0
F-250.0
F-250.0
F-250.0
F-250.0
F-250.0
F-250.0
F-250.0
F-4.569318787866106
F-250.0
F-250.0
F-250.0
F-250.0
F-3.225648611743105
F-3.6029411765397863
F-11.324869753965983
F-250.0
F-59.293831168335146
F-250.0
F-250.0
F-250.0
F-250.0
F-250.0
F-250.0
F-250.0
F-250.0
F-250.0
F-250.0
F-2.399999999999636
F-1.533175164874541
F-0.0
F-250.0
F-250.0
tp118
sbsbsI11
g2
(g22
g23
(lp119
F0.13436424411240122
aF0.8474337369372327
aF0.07637746189766141
aF0.0002550690257394217
aF0.004954350870919409
aF0.02274980770704254
aF658.5611132683077
atp120
Rp121
(dp122
g28
I11
sg29
g2
(g30
g4
Ntp123
Rp124
(dp125
g34
g35
sg36
g37
sbsbsI12
g2
(g22
g23
(lp126
F0.7887233511355132
aF0.0938595867742349
aF0.002834747652200631
aF0.0008357651039198697
aF0.004327670679050534
aF0.03823286408166813
aF22.06393228408848
atp127
Rp128
(dp129
g28
I12
sg29
g2
(g30
g4
Ntp130
Rp131
(dp132
g34
g45
sg36
g46
sbsbsI13
g2
(g22
g23
(lp133
F0.4453871940548014
aF0.7215400323407826
aF0.022876222127045265
aF0.0009452706955539223
aF0.009014274576114836
aF0.0020142041601609
aF44.93694377359158
atp134
Rp135
(dp136
g28
I13
sg29
g2
(g30
g4
Ntp137
Rp138
(dp139
g34
g54
sg36
g55
sbsbsI14
g2
(g22
g23
(lp140
F0.5414124727934966
aF0.9391491627785106
aF0.03812042376882124
aF0.00021659939713061338
aF0.004221165755827173
aF0.0019375189849559632
aF237.25783294757434
atp141
Rp142
(dp143
g28
I14
sg29
g2
(g30
g4
Ntp144
Rp145
(dp146
g34
g63
sg36
g64
sbsbsI15
g2
(g22
g23
(lp147
F0.43788759365057206
aF0.49581224138185065
aF0.023308445025757265
aF0.0002308665415409843
aF0.0021878103733768864
aF0.023250371554017813
aF303.9859822986759
atp148
Rp149
(dp150
g28
I15
sg29
g2
(g30
g4
Ntp151
Rp152
(dp153
g34
g72
sg36
g73
sbsbsI16
g2
(g22
g23
(lp154
F0.021489705265908876
aF0.8375779756625729
aF0.05564543226524335
aF0.0006422943629324456
aF0.001859062658947177
aF0.04963089890271523
aF862.747598219384
atp155
Rp156
(dp157
g28
I16
sg29
g2
(g30
g4
Ntp158
Rp159
(dp160
g34
g81
sg36
g82
sbsbsI17
g2
(g22
g23
(lp161
F0.12088995980580641
aF0.3326951853601291
aF0.07214844075832684
aF0.0007111917696952796
aF0.009364405867994597
aF0.021394296498090055
aF833.4349794088405
atp162
Rp163
(dp164
g28
I17
sg29
g2
(g30
g4
Ntp165
Rp166
(dp167
g34
g90
sg36
g91
sbsbsI18
g2
(g22
g23
(lp168
F0.670305566414071
aF0.3033685109329176
aF0.05875806061435595
aF0.0008824790008318577
aF0.008461974184283128
aF0.025511549118690222
aF597.2222128229007
atp169
Rp170
(dp171
g28
I18
sg29
g2
(g30
g4
Ntp172
Rp173
(dp174
g34
g99
sg36
g100
sbsbsI19
g2
(g22
g23
(lp175
F0.034525830151341586
aF0.24273997354306764
aF0.07974042475543029
aF0.00041431399930077427
aF0.0017300740157905094
aF0.027665538688713576
aF708.9799468243189
atp176
Rp177
(dp178
g28
I19
sg29
g2
(g30
g4
Ntp179
Rp180
(dp181
g34
g108
sg36
g109
sbsbsI20
g2
(g22
g23
(lp182
F0.6744858305023272
aF0.3747030205016403
aF0.04389616300445631
aF0.0005084264882499819
aF0.007784426150001458
aF0.02628645167185069
aF405.38999306494156
atp183
Rp184
(dp185
g28
I20
sg29
g2
(g30
g4
Ntp186
Rp187
(dp188
g34
g117
sg36
g118
sbsbsI21
g2
(g22
g23
(lp189
F0.22112349993819697
aF0.8474337369372327
aF0.05024551013954964
aF0.0003331428331029379
aF0.0054212721369138635
aF0.02274980770704254
aF658.5611132683077
atp190
Rp191
(dp192
g28
I21
sg29
g2
(g30
g4
Ntp193
Rp194
(dp195
g34
g35
sg36
(F-250.0
F-250.0
F-250.0
F-250.0
F-250.0
F-250.0
F-250.0
F-250.0
F-250.0
F-250.0
F-250.0
F-250.0
F-250.0
F-250.0
F-250.0
F-250.0
F-250.0
F-250.0
F-250.0
F-250.0
F-250.0
F-250.0
F-250.0
F-250.0
F-250.0
F-250.0
F-250.0
F-250.0
F-250.0
F-250.0
F-2.799999999999727
F-5.130481548325145
F-0.0
F-250.0
F-250.0
tp196
sbsbsI22
g2
(g22
g23
(lp197
F0.7235339093975051
aF0.0938595867742349
aF0.002834747652200631
aF0.0008366048214167003
aF0.004476097746571445
aF0.03950288935323932
aF21.237830876292094
atp198
Rp199
(dp200
g28
I22
sg29
g2
(g30
g4
Ntp201
Rp202
(dp203
g34
g45
sg36
(F-7.156030287285315
F-3.6972036462481705
F-0.8166527135955345
F-5.787911076171494
F-6.4039602344194515
F-2.5831416365440707
F-12.521407850147337
F-6.84933029590628
F-0.11232491959562323
F-2.21906449370408
F-2.1423629651701828
F-26.836780371858246
F-1.6161184033390847
F-16.195652173917978
F-2.479967350356172
F-2.628243058717478
F-1.9117647059511669
F-4.213668885469169
F-4.9022788388567164
F-3.8095514607084024
F-7.02360362732229
F-7.261503656994795
F-0.7122127148628353
F-8.496081427793653
F-7.37076867191809
F-2.0145987719010243
F-5.056296914129277
F-7.820703897555251
F-0.9379211286181706
F-2.4528998601288707
F-1.5999999999994543
F-2.5347835603662205
F-0.0
F-250.0
F-250.0
tp204
sbsbsI23
g2
(g22
g23
(lp205
F0.44526513176688176
aF0.8244685995192405
aF0.04073604782520718
aF0.0009452706955539223
aF0.003431717686539937
aF0.007995059158776024
aF131.59394104858978
atp206
Rp207
(dp208
g28
I23
sg29
g2
(g30
g4
Ntp209
Rp210
(dp211
g34
g54
sg36
(F-250.0
F-250.0
F-250.0
F-250.0
F-250.0
F-250.0
F-250.0
F-250.0
F-250.0
F-250.0
F-250.0
F-250.0
F-250.0
F-250.0
F-250.0
F-250.0
F-250.0
F-250.0
F-250.0
F-250.0
F-250.0
F-250.0
F-250.0
F-250.0
F-250.0
F-250.0
F-250.0
F-250.0
F-250.0
F-250.0
F-2.799999999999727
F-1.3398171405787038
F-0.0
F-250.0
F-250.0
tp212
sbsbsI24
g2
(g22
g23
(lp213
F0.5415345350814206
aF0.9798461773506095
aF0.03770344510466205
aF0.00021659939713061338
aF0.009194505081538875
aF0.001540542809310357
aF274.6718889967158
atp214
Rp215
(dp216
g28
I24
sg29
g2
(g30
g4
Ntp217
Rp218
(dp219
g34
g63
sg36
(F-250.0
F-250.0
F-250.0
F-250.0
F-250.0
F-250.0
F-250.0
F-250.0
F-250.0
F-250.0
F-250.0
F-250.0
F-250.0
F-250.0
F-250.0
F-250.0
F-250.0
F-250.0
F-250.0
F-250.0
F-250.0
F-250.0
F-250.0
F-250.0
F-250.0
F-250.0
F-250.0
F-250.0
F-250.0
F-250.0
F-2.799999999999727
F-0.7478617685150326
F-0.0
F-250.0
F-250.0
tp220
sbsbsI25
g2
(g22
g23
(lp221
F0.3057090166988937
aF0.49581224138185065
aF0.026220233319796046
aF0.00034713528146583294
aF0.0021879521813059624
aF0.019751581134826706
aF580.9407680428744
atp222
Rp223
(dp224
g28
I25
sg29
g2
(g30
g4
Ntp225
Rp226
(dp227
g34
g72
sg36
(F-250.0
F-250.0
F-250.0
F-250.0
F-250.0
F-250.0
F-250.0
F-250.0
F-250.0
F-250.0
F-250.0
F-250.0
F-250.0
F-250.0
F-250.0
F-250.0
F-250.0
F-250.0
F-250.0
F-250.0
F-250.0
F-250.0
F-250.0
F-250.0
F-250.0
F-250.0
F-250.0
F-250.0
F-250.0
F-250.0
F-2.5999999999996817
F-2.341926581487765
F-0.0
F-250.0
F-250.0
tp228
sbsbsI26
g2
(g22
g23
(lp229
F0.009731854003768525
aF0.8375779756625729
aF0.05273016625998346
aF0.0006422943629324456
aF0.0030917348359611203
aF0.048673893343722484
aF991.0372967065766
atp230
Rp231
(dp232
g28
I26
sg29
g2
(g30
g4
Ntp233
Rp234
(dp235
g34
g81
sg36
(F-250.0
F-250.0
F-250.0
F-250.0
F-250.0
F-250.0
F-250.0
F-250.0
F-250.0
F-250.0
F-250.0
F-250.0
F-250.0
F-250.0
F-250.0
F-250.0
F-250.0
F-250.0
F-250.0
F-250.0
F-250.0
F-250.0
F-250.0
F-250.0
F-250.0
F-250.0
F-250.0
F-250.0
F-250.0
F-250.0
F-250.0
F-250.0
F-100.0
F-250.0
F-250.0
tp236
sbsbsI27
g2
(g22
g23
(lp237
F0.6069618717528533
aF0.21252387363696246
aF0.07214844075832684
aF0.0007732962733539389
aF0.009364405867994597
aF0.021167340839845013
aF768.3422466574493
atp238
Rp239
(dp240
g28
I27
sg29
g2
(g30
g4
Ntp241
Rp242
(dp243
g34
g90
sg36
(F-250.0
F-250.0
F-250.0
F-250.0
F-250.0
F-250.0
F-250.0
F-250.0
F-250.0
F-250.0
F-3.265593910354782
F-250.0
F-250.0
F-250.0
F-250.0
F-3.225648611743105
F-2.8676470588925604
F-11.553184328824631
F-250.0
F-64.93055555498962
F-250.0
F-250.0
F-250.0
F-250.0
F-250.0
F-250.0
F-250.0
F-250.0
F-250.0
F-250.0
F-2.1999999999995907
F-1.6531190719426134
F-0.0
F-250.0
F-250.0
tp244
sbsbsI28
g2
(g22
g23
(lp245
F0.18440667191419535
aF0.3329439239292965
aF0.05875806061435595
aF0.0008824790008318577
aF0.008543429203985263
aF0.015521777925735284
aF738.1463718689968
atp246
Rp247
(dp248
g28
I28
sg29
g2
(g30
g4
Ntp249
Rp250
(dp251
g34
g99
sg36
(F-250.0
F-250.0
F-250.0
F-250.0
F-250.0
F-250.0
F-250.0
F-250.0
F-250.0
F-250.0
F-250.0
F-250.0
F-250.0
F-250.0
F-250.0
F-250.0
F-250.0
F-250.0
F-250.0
F-250.0
F-250.0
F-250.0
F-250.0
F-250.0
F-250.0
F-250.0
F-250.0
F-250.0
F-250.0
F-250.0
F-2.1999999999995907
F-4.349936611460448
F-0.0
F-250.0
F-250.0
tp252
sbsbsI29
g2
(g22
g23
(lp253
F0.08023337904367683
aF0.38739156799674873
aF0.07974042475543029
aF0.0004306137663981866
aF0.006147403030593703
aF0.03402359568049036
aF425.04608104982924
atp254
Rp255
(dp256
g28
I29
sg29
g2
(g30
g4
Ntp257
Rp258
(dp259
g34
g108
sg36
(F-250.0
F-250.0
F-250.0
F-250.0
F-250.0
F-250.0
F-250.0
F-250.0
F-250.0
F-250.0
F-250.0
F-250.0
F-250.0
F-250.0
F-250.0
F-250.0
F-250.0
F-250.0
F-250.0
F-250.0
F-250.0
F-250.0
F-250.0
F-250.0
F-250.0
F-250.0
F-250.0
F-250.0
F-250.0
F-250.0
F-250.0
F-250.0
F-100.0
F-250.0
F-250.0
tp260
sbsbsI30
g2
(g22
g23
(lp261
F0.5809981646188278
aF0.2535743146611177
aF0.04389616300445631
aF0.0005430601627421156
aF0.0008432742064411172
aF0.02630239529184128
aF625.9405619279626
atp262
Rp263
(dp264
g28
I30
sg29
g2
(g30
g4
Ntp265
Rp266
(dp267
g34
g117
sg36
(F-250.0
F-250.0
F-250.0
F-250.0
F-250.0
F-250.0
F-250.0
F-250.0
F-250.0
F-250.0
F-3.7625522397253888
F-250.0
F-250.0
F-250.0
F-250.0
F-2.9980655439232993
F-3.0882352941867284
F-11.319852862455196
F-250.0
F-63.15901360489871
F-250.0
F-250.0
F-250.0
F-250.0
F-250.0
F-250.0
F-250.0
F-250.0
F-250.0
F-250.0
F-2.1999999999995907
F-1.1477954093167846
F-0.0
F-250.0
F-250.0
tp268
sbsbsI31
g2
(g22
g23
(lp269
F0.5809981646188278
aF0.2535743146611177
aF0.04389616300445631
aF0.0005430601627421156
aF0.0008432742064411172
aF0.02630239529184128
aF625.9405619279626
atp270
Rp271
(dp272
g28
I31
sS'ibea_fitness'
p273
cnumpy.core.multiarray
scalar
p274
(cnumpy
dtype
p275
(S'f8'
p276
I0
I1
tp277
Rp278
(I3
S'<'
p279
NNNI-1
I-1
I0
tp280
bS'\x00\x00\x00\x00\x00\x00\xf8\x7f'
p281
tp282
Rp283
sg29
g2
(g30
g4
Ntp284
Rp285
(dp286
g34
g117
sg36
g268
sbsbsI32
g2
(g22
g23
(lp287
F0.43788759365057206
aF0.49581224138185065
aF0.023308445025757265
aF0.0002308665415409843
aF0.0021878103733768864
aF0.023250371554017813
aF303.9859822986759
atp288
Rp289
(dp290
g28
I32
sg273
g274
(g278
S'\x00\x00\x00\x00\x00\x00\xf8\x7f'
p291
tp292
Rp293
sg29
g2
(g30
g4
Ntp294
Rp295
(dp296
g34
g72
sg36
g73
sbsbsI33
g2
(g22
g23
(lp297
F0.670305566414071
aF0.3033685109329176
aF0.05875806061435595
aF0.0008824790008318577
aF0.008461974184283128
aF0.025511549118690222
aF597.2222128229007
atp298
Rp299
(dp300
g28
I33
sg273
g274
(g278
S'\x00\x00\x00\x00\x00\x00\xf8\x7f'
p301
tp302
Rp303
sg29
g2
(g30
g4
Ntp304
Rp305
(dp306
g34
g99
sg36
g100
sbsbsI34
g2
(g22
g23
(lp307
F0.021489705265908876
aF0.8375779756625729
aF0.05564543226524335
aF0.0006422943629324456
aF0.001859062658947177
aF0.04963089890271523
aF862.747598219384
atp308
Rp309
(dp310
g28
I34
sg273
g274
(g278
S'\x00\x00\x00\x00\x00\x00\xf8\x7f'
p311
tp312
Rp313
sg29
g2
(g30
g4
Ntp314
Rp315
(dp316
g34
g81
sg36
g82
sbsbsI35
g2
(g22
g23
(lp317
F0.13436424411240122
aF0.8474337369372327
aF0.07637746189766141
aF0.0002550690257394217
aF0.004954350870919409
aF0.02274980770704254
aF658.5611132683077
atp318
Rp319
(dp320
g28
I35
sg273
g274
(g278
S'\x00\x00\x00\x00\x00\x00\xf8\x7f'
p321
tp322
Rp323
sg29
g2
(g30
g4
Ntp324
Rp325
(dp326
g34
g35
sg36
g37
sbsbsI36
g2
(g22
g23
(lp327
F0.7235339093975051
aF0.0938595867742349
aF0.002834747652200631
aF0.0008366048214167003
aF0.004476097746571445
aF0.03950288935323932
aF21.237830876292094
atp328
Rp329
(dp330
g28
I36
sg273
g274
(g278
S'\x00\x00\x00\x00\x00\x00\xf8\x7f'
p331
tp332
Rp333
sg29
g2
(g30
g4
Ntp334
Rp335
(dp336
g34
g45
sg36
g204
sbsbsI37
g2
(g22
g23
(lp337
F0.08023337904367683
aF0.38739156799674873
aF0.07974042475543029
aF0.0004306137663981866
aF0.006147403030593703
aF0.03402359568049036
aF425.04608104982924
atp338
Rp339
(dp340
g28
I37
sg273
g274
(g278
S'\x00\x00\x00\x00\x00\x00\xf8\x7f'
p341
tp342
Rp343
sg29
g2
(g30
g4
Ntp344
Rp345
(dp346
g34
g108
sg36
g260
sbsbsI38
g2
(g22
g23
(lp347
F0.43788759365057206
aF0.49581224138185065
aF0.023308445025757265
aF0.0002308665415409843
aF0.0021878103733768864
aF0.023250371554017813
aF303.9859822986759
atp348
Rp349
(dp350
g28
I38
sg273
g274
(g278
S'\x00\x00\x00\x00\x00\x00\xf8\x7f'
p351
tp352
Rp353
sg29
g2
(g30
g4
Ntp354
Rp355
(dp356
g34
g72
sg36
g73
sbsbsI39
g2
(g22
g23
(lp357
F0.5415345350814206
aF0.9798461773506095
aF0.03770344510466205
aF0.00021659939713061338
aF0.009194505081538875
aF0.001540542809310357
aF274.6718889967158
atp358
Rp359
(dp360
g28
I39
sg273
g274
(g278
S'\x00\x00\x00\x00\x00\x00\xf8\x7f'
p361
tp362
Rp363
sg29
g2
(g30
g4
Ntp364
Rp365
(dp366
g34
g63
sg36
g220
sbsbsI40
g2
(g22
g23
(lp367
F0.12088995980580641
aF0.3326951853601291
aF0.07214844075832684
aF0.0007111917696952796
aF0.009364405867994597
aF0.021394296498090055
aF833.4349794088405
atp368
Rp369
(dp370
g28
I40
sg273
g274
(g278
S'\x00\x00\x00\x00\x00\x00\xf8\x7f'
p371
tp372
Rp373
sg29
g2
(g30
g4
Ntp374
Rp375
(dp376
g34
g90
sg36
g91
sbsbsI41
g2
(g22
g23
(lp377
F0.31760895479357343
aF0.3464769491807961
aF0.04146914351890887
aF0.0002131126759711791
aF2.1026318901540427e-05
aF0.02630239529184128
aF625.9405619279626
atp378
Rp379
(dp380
g28
I41
sg273
g274
(g278
S'\x00\x00\x00\x00\x00\x00\xf8\x7f'
p381
tp382
Rp383
sg29
g2
(g30
g4
Ntp384
Rp385
(dp386
g34
g117
sg36
(F-250.0
F-250.0
F-250.0
F-250.0
F-250.0
F-250.0
F-250.0
F-250.0
F-250.0
F-250.0
F-250.0
F-250.0
F-250.0
F-250.0
F-250.0
F-250.0
F-250.0
F-250.0
F-250.0
F-250.0
F-250.0
F-250.0
F-250.0
F-250.0
F-250.0
F-250.0
F-250.0
F-250.0
F-250.0
F-250.0
F-2.399999999999636
F-1.6239371818477821
F-0.0
F-250.0
F-250.0
tp387
sbsbsI42
g2
(g22
g23
(lp388
F0.6248100250289073
aF0.49581224138185065
aF0.023670127636048307
aF0.0004908320137202313
aF0.0022800298115832392
aF0.023250371554017813
aF303.9859822986759
atp389
Rp390
(dp391
g28
I42
sg273
g274
(g278
S'\x00\x00\x00\x00\x00\x00\xf8\x7f'
p392
tp393
Rp394
sg29
g2
(g30
g4
Ntp395
Rp396
(dp397
g34
g72
sg36
(F-250.0
F-250.0
F-250.0
F-250.0
F-250.0
F-250.0
F-250.0
F-250.0
F-250.0
F-250.0
F-6.123490346240392
F-250.0
F-250.0
F-250.0
F-250.0
F-3.225648611743105
F-4.485294117716458
F-10.829154587629004
F-250.0
F-53.426204818848966
F-250.0
F-250.0
F-250.0
F-250.0
F-250.0
F-250.0
F-250.0
F-250.0
F-250.0
F-250.0
F-2.5999999999996817
F-0.82674138953723
F-0.0
F-250.0
F-250.0
tp398
sbsbsI43
g2
(g22
g23
(lp399
F0.6497888948355937
aF0.14950832513451617
aF0.05589176620148392
aF0.000892444617150416
aF0.008986747093004604
aF0.025508411993956023
aF921.808333364022
atp400
Rp401
(dp402
g28
I43
sg273
g274
(g278
S'\x00\x00\x00\x00\x00\x00\xf8\x7f'
p403
tp404
Rp405
sg29
g2
(g30
g4
Ntp406
Rp407
(dp408
g34
g99
sg36
(F-250.0
F-250.0
F-250.0
F-250.0
F-250.0
F-250.0
F-250.0
F-250.0
F-250.0
F-250.0
F-1.4831076994103172
F-250.0
F-250.0
F-250.0
F-250.0
F-3.111857077833202
F-2.3529411765395025
F-11.449662116115613
F-250.0
F-69.36587591178456
F-250.0
F-250.0
F-250.0
F-250.0
F-250.0
F-250.0
F-250.0
F-250.0
F-250.0
F-250.0
F-1.9999999999995453
F-1.813317874267139
F-0.0
F-250.0
F-250.0
tp409
sbsbsI44
g2
(g22
g23
(lp410
F0.09548327392015804
aF0.8375779756625729
aF0.05851172667811538
aF0.0006323163659384364
aF0.001859062658947177
aF0.04915625855145431
aF566.5366963928511
atp411
Rp412
(dp413
g28
I44
sg273
g274
(g278
S'\x00\x00\x00\x00\x00\x00\xf8\x7f'
p414
tp415
Rp416
sg29
g2
(g30
g4
Ntp417
Rp418
(dp419
g34
g81
sg36
(F-250.0
F-250.0
F-250.0
F-250.0
F-250.0
F-250.0
F-250.0
F-250.0
F-250.0
F-250.0
F-250.0
F-250.0
F-250.0
F-250.0
F-250.0
F-250.0
F-250.0
F-250.0
F-250.0
F-250.0
F-250.0
F-250.0
F-250.0
F-250.0
F-250.0
F-250.0
F-250.0
F-250.0
F-250.0
F-250.0
F-250.0
F-250.0
F-100.0
F-250.0
F-250.0
tp420
sbsbsI45
g2
(g22
g23
(lp421
F0.08158008455512855
aF0.8474337369372327
aF0.008364167529095985
aF0.00029527601763787534
aF0.004990507869547125
aF0.02288717982928048
aF105.20284370819755
atp422
Rp423
(dp424
g28
I45
sg273
g274
(g278
S'\x00\x00\x00\x00\x00\x00\xf8\x7f'
p425
tp426
Rp427
sg29
g2
(g30
g4
Ntp428
Rp429
(dp430
g34
g35
sg36
(F-250.0
F-250.0
F-250.0
F-250.0
F-250.0
F-250.0
F-250.0
F-250.0
F-250.0
F-250.0
F-250.0
F-250.0
F-250.0
F-250.0
F-250.0
F-250.0
F-250.0
F-250.0
F-250.0
F-250.0
F-250.0
F-250.0
F-250.0
F-250.0
F-250.0
F-250.0
F-250.0
F-250.0
F-250.0
F-250.0
F-250.0
F-250.0
F-100.0
F-250.0
F-250.0
tp431
sbsbsI46
g2
(g22
g23
(lp432
F0.7235339093975051
aF0.0938595867742349
aF0.07155889629561246
aF0.0009429534906811585
aF0.00443994074794373
aF0.042623425250241154
aF645.5429887294033
atp433
Rp434
(dp435
g28
I46
sg273
g274
(g278
S'\x00\x00\x00\x00\x00\x00\xf8\x7f'
p436
tp437
Rp438
sg29
g2
(g30
g4
Ntp439
Rp440
(dp441
g34
g45
sg36
(F-250.0
F-250.0
F-250.0
F-250.0
F-250.0
F-250.0
F-250.0
F-250.0
F-250.0
F-250.0
F-0.10150983689088952
F-250.0
F-250.0
F-250.0
F-250.0
F-3.111857077833202
F-2.1323529412453346
F-11.550237884688658
F-250.0
F-71.40858208890026
F-250.0
F-250.0
F-250.0
F-250.0
F-250.0
F-250.0
F-250.0
F-250.0
F-250.0
F-250.0
F-2.1999999999995907
F-2.6100084254386955
F-0.0
F-250.0
F-250.0
tp442
sbsbsI47
g2
(g22
g23
(lp443
F0.08023337904367683
aF0.54508837921895
aF0.07974042475543029
aF0.0005116668643301665
aF0.005161604519383352
aF0.028204419474143285
aF425.04608104982924
atp444
Rp445
(dp446
g28
I47
sg273
g274
(g278
S'\x00\x00\x00\x00\x00\x00\xf8\x7f'
p447
tp448
Rp449
sg29
g2
(g30
g4
Ntp450
Rp451
(dp452
g34
g108
sg36
(F-250.0
F-250.0
F-250.0
F-250.0
F-250.0
F-250.0
F-250.0
F-250.0
F-250.0
F-250.0
F-250.0
F-250.0
F-250.0
F-250.0
F-250.0
F-250.0
F-250.0
F-250.0
F-250.0
F-250.0
F-250.0
F-250.0
F-250.0
F-250.0
F-250.0
F-250.0
F-250.0
F-250.0
F-250.0
F-250.0
F-250.0
F-250.0
F-100.0
F-250.0
F-250.0
tp453
sbsbsI48
g2
(g22
g23
(lp454
F0.4581178043420606
aF0.37299561179260365
aF0.01759627045462594
aF0.0002308665415409843
aF0.0014538409065915194
aF0.0109492401561183
aF303.9859822986759
atp455
Rp456
(dp457
g28
I48
sg273
g274
(g278
S'\x00\x00\x00\x00\x00\x00\xf8\x7f'
p458
tp459
Rp460
sg29
g2
(g30
g4
Ntp461
Rp462
(dp463
g34
g72
sg36
(F-250.0
F-250.0
F-250.0
F-250.0
F-250.0
F-250.0
F-250.0
F-250.0
F-250.0
F-250.0
F-8.280585772767838
F-250.0
F-250.0
F-250.0
F-250.0
F-3.111857077833202
F-4.705882353010625
F-10.197738915774499
F-250.0
F-52.08949704100674
F-250.0
F-250.0
F-250.0
F-250.0
F-250.0
F-250.0
F-250.0
F-250.0
F-250.0
F-250.0
F-2.399999999999636
F-0.04113327409475218
F-0.0
F-250.0
F-250.0
tp464
sbsbsI49
g2
(g22
g23
(lp465
F0.06652809536579557
aF0.9299619771588515
aF0.03770344510466205
aF0.0002335548857466927
aF0.009551462902619037
aF0.004047880246188187
aF837.2285493502432
atp466
Rp467
(dp468
g28
I49
sg273
g274
(g278
S'\x00\x00\x00\x00\x00\x00\xf8\x7f'
p469
tp470
Rp471
sg29
g2
(g30
g4
Ntp472
Rp473
(dp474
g34
g63
sg36
(F-250.0
F-250.0
F-250.0
F-250.0
F-250.0
F-250.0
F-250.0
F-250.0
F-250.0
F-250.0
F-250.0
F-250.0
F-250.0
F-250.0
F-250.0
F-250.0
F-250.0
F-250.0
F-250.0
F-250.0
F-250.0
F-250.0
F-250.0
F-250.0
F-250.0
F-250.0
F-250.0
F-250.0
F-250.0
F-250.0
F-250.0
F-250.0
F-100.0
F-250.0
F-250.0
tp475
sbsbsI50
g2
(g22
g23
(lp476
F0.5979563286604228
aF0.43951887261322553
aF0.07214844075832684
aF0.0007111917696952796
aF0.008695221214089823
aF0.02312638806277889
aF329.7295675139741
atp477
Rp478
(dp479
g28
I50
sg273
g274
(g278
S'\x00\x00\x00\x00\x00\x00\xf8\x7f'
p480
tp481
Rp482
sg29
g2
(g30
g4
Ntp483
Rp484
(dp485
g34
g90
sg36
(F-250.0
F-250.0
F-250.0
F-250.0
F-250.0
F-250.0
F-250.0
F-250.0
F-250.0
F-250.0
F-250.0
F-250.0
F-250.0
F-250.0
F-250.0
F-250.0
F-250.0
F-250.0
F-250.0
F-250.0
F-250.0
F-250.0
F-250.0
F-250.0
F-250.0
F-250.0
F-250.0
F-250.0
F-250.0
F-250.0
F-2.399999999999636
F-0.5894468686448071
F-0.0
F-250.0
F-250.0
tp486
sbsbsI51
g2
(g22
g23
(lp487
F0.31760895479357343
aF0.3464769491807961
aF0.04146914351890887
aF0.0002131126759711791
aF2.1026318901540427e-05
aF0.02630239529184128
aF625.9405619279626
atp488
Rp489
(dp490
g28
I51
sg273
g274
(g278
S'\x00\x00\x00\x00\x00\x00\xf8\x7f'
p491
tp492
Rp493
sg29
g2
(g30
g4
Ntp494
Rp495
(dp496
g34
g117
sg36
g387
sbsbsI52
g2
(g22
g23
(lp497
F0.670305566414071
aF0.3033685109329176
aF0.05875806061435595
aF0.0008824790008318577
aF0.008461974184283128
aF0.025511549118690222
aF597.2222128229007
atp498
Rp499
(dp500
g28
I52
sg273
g274
(g278
S'\x00\x00\x00\x00\x00\x00\xf8\x7f'
p501
tp502
Rp503
sg29
g2
(g30
g4
Ntp504
Rp505
(dp506
g34
g99
sg36
g100
sbsbsI53
g2
(g22
g23
(lp507
F0.31760895479357343
aF0.3464769491807961
aF0.04146914351890887
aF0.0002131126759711791
aF2.1026318901540427e-05
aF0.02630239529184128
aF625.9405619279626
atp508
Rp509
(dp510
g28
I53
sg273
g274
(g278
S'\x00\x00\x00\x00\x00\x00\xf8\x7f'
p511
tp512
Rp513
sg29
g2
(g30
g4
Ntp514
Rp515
(dp516
g34
g117
sg36
g387
sbsbsI54
g2
(g22
g23
(lp517
F0.5415345350814206
aF0.9798461773506095
aF0.03770344510466205
aF0.00021659939713061338
aF0.009194505081538875
aF0.001540542809310357
aF274.6718889967158
atp518
Rp519
(dp520
g28
I54
sg273
g274
(g278
S'\x00\x00\x00\x00\x00\x00\xf8\x7f'
p521
tp522
Rp523
sg29
g2
(g30
g4
Ntp524
Rp525
(dp526
g34
g63
sg36
g220
sbsbsI55
g2
(g22
g23
(lp527
F0.7235339093975051
aF0.0938595867742349
aF0.07155889629561246
aF0.0009429534906811585
aF0.00443994074794373
aF0.042623425250241154
aF645.5429887294033
atp528
Rp529
(dp530
g28
I55
sg273
g274
(g278
S'\x00\x00\x00\x00\x00\x00\xf8\x7f'
p531
tp532
Rp533
sg29
g2
(g30
g4
Ntp534
Rp535
(dp536
g34
g45
sg36
g442
sbsbsI56
g2
(g22
g23
(lp537
F0.43788759365057206
aF0.49581224138185065
aF0.023308445025757265
aF0.0002308665415409843
aF0.0021878103733768864
aF0.023250371554017813
aF303.9859822986759
atp538
Rp539
(dp540
g28
I56
sg273
g274
(g278
S'\x00\x00\x00\x00\x00\x00\xf8\x7f'
p541
tp542
Rp543
sg29
g2
(g30
g4
Ntp544
Rp545
(dp546
g34
g72
sg36
g73
sbsbsI57
g2
(g22
g23
(lp547
F0.6248100250289073
aF0.49581224138185065
aF0.023670127636048307
aF0.0004908320137202313
aF0.0022800298115832392
aF0.023250371554017813
aF303.9859822986759
atp548
Rp549
(dp550
g28
I57
sg273
g274
(g278
S'\x00\x00\x00\x00\x00\x00\xf8\x7f'
p551
tp552
Rp553
sg29
g2
(g30
g4
Ntp554
Rp555
(dp556
g34
g72
sg36
g398
sbsbsI58
g2
(g22
g23
(lp557
F0.5979563286604228
aF0.43951887261322553
aF0.07214844075832684
aF0.0007111917696952796
aF0.008695221214089823
aF0.02312638806277889
aF329.7295675139741
atp558
Rp559
(dp560
g28
I58
sg273
g274
(g278
S'\x00\x00\x00\x00\x00\x00\xf8\x7f'
p561
tp562
Rp563
sg29
g2
(g30
g4
Ntp564
Rp565
(dp566
g34
g90
sg36
g486
sbsbsI59
g2
(g22
g23
(lp567
F0.08158008455512855
aF0.8474337369372327
aF0.008364167529095985
aF0.00029527601763787534
aF0.004990507869547125
aF0.02288717982928048
aF105.20284370819755
atp568
Rp569
(dp570
g28
I59
sg273
g274
(g278
S'\x00\x00\x00\x00\x00\x00\xf8\x7f'
p571
tp572
Rp573
sg29
g2
(g30
g4
Ntp574
Rp575
(dp576
g34
g35
sg36
g431
sbsbsI60
g2
(g22
g23
(lp577
F0.6497888948355937
aF0.14950832513451617
aF0.05589176620148392
aF0.000892444617150416
aF0.008986747093004604
aF0.025508411993956023
aF921.808333364022
atp578
Rp579
(dp580
g28
I60
sg273
g274
(g278
S'\x00\x00\x00\x00\x00\x00\xf8\x7f'
p581
tp582
Rp583
sg29
g2
(g30
g4
Ntp584
Rp585
(dp586
g34
g99
sg36
g409
sbsbsI61
g2
(g22
g23
(lp587
F0.32094532041118057
aF0.3464769491807961
aF0.040148049522302554
aF0.0002131126759711791
aF2.1026318901540427e-05
aF0.026773835208847848
aF848.6386992844488
atp588
Rp589
(dp590
g28
I61
sg273
g274
(g278
S'\x00\x00\x00\x00\x00\x00\xf8\x7f'
p591
tp592
Rp593
sg29
g2
(g30
g4
Ntp594
Rp595
(dp596
g34
g117
sg36
(F-250.0
F-250.0
F-250.0
F-250.0
F-250.0
F-250.0
F-250.0
F-250.0
F-250.0
F-250.0
F-250.0
F-250.0
F-250.0
F-250.0
F-250.0
F-250.0
F-250.0
F-250.0
F-250.0
F-250.0
F-250.0
F-250.0
F-250.0
F-250.0
F-250.0
F-250.0
F-250.0
F-250.0
F-250.0
F-250.0
F-2.399999999999636
F-1.506541384647047
F-0.0
F-250.0
F-250.0
tp597
sbsbsI62
g2
(g22
g23
(lp598
F0.6669692228462851
aF0.3033685109329176
aF0.05875806061435595
aF0.000886158730219633
aF0.007358113564667196
aF0.0263274719068506
aF657.2817141361422
atp599
Rp600
(dp601
g28
I62
sg273
g274
(g278
S'\x00\x00\x00\x00\x00\x00\xf8\x7f'
p602
tp603
Rp604
sg29
g2
(g30
g4
Ntp605
Rp606
(dp607
g34
g99
sg36
(F-250.0
F-250.0
F-250.0
F-250.0
F-250.0
F-250.0
F-250.0
F-250.0
F-250.0
F-250.0
F-3.326907044083496
F-250.0
F-250.0
F-250.0
F-250.0
F-3.225648611743105
F-3.0882352941867284
F-11.47203838246039
F-250.0
F-63.15901360489871
F-250.0
F-250.0
F-250.0
F-250.0
F-250.0
F-250.0
F-250.0
F-250.0
F-250.0
F-250.0
F-2.399999999999636
F-1.6443004341476737
F-0.0
F-250.0
F-250.0
tp608
sbsbsI63
g2
(g22
g23
(lp609
F0.3145226893325506
aF0.3464769491807961
aF0.028425739620887243
aF0.00021181493793440487
aF7.905680857695093e-06
aF0.027268266261504366
aF625.9405619279626
atp610
Rp611
(dp612
g28
I63
sg273
g274
(g278
S'\x00\x00\x00\x00\x00\x00\xf8\x7f'
p613
tp614
Rp615
sg29
g2
(g30
g4
Ntp616
Rp617
(dp618
g34
g117
sg36
(F-250.0
F-250.0
F-250.0
F-250.0
F-250.0
F-250.0
F-250.0
F-250.0
F-250.0
F-250.0
F-250.0
F-250.0
F-250.0
F-250.0
F-250.0
F-250.0
F-250.0
F-250.0
F-250.0
F-250.0
F-250.0
F-250.0
F-250.0
F-250.0
F-250.0
F-250.0
F-250.0
F-250.0
F-250.0
F-250.0
F-2.399999999999636
F-1.6821129578357414
F-0.0
F-250.0
F-250.0
tp619
sbsbsI64
g2
(g22
g23
(lp620
F0.5910649213985029
aF0.9798461773506095
aF0.03770344510466205
aF0.00021659939713061338
aF0.009659120461871536
aF0.0036824241213415532
aF255.7242496820731
atp621
Rp622
(dp623
g28
I64
sg273
g274
(g278
S'\x00\x00\x00\x00\x00\x00\xf8\x7f'
p624
tp625
Rp626
sg29
g2
(g30
g4
Ntp627
Rp628
(dp629
g34
g63
sg36
(F-250.0
F-250.0
F-250.0
F-250.0
F-250.0
F-250.0
F-250.0
F-250.0
F-250.0
F-250.0
F-250.0
F-250.0
F-250.0
F-250.0
F-250.0
F-250.0
F-250.0
F-250.0
F-250.0
F-250.0
F-250.0
F-250.0
F-250.0
F-250.0
F-250.0
F-250.0
F-250.0
F-250.0
F-250.0
F-250.0
F-2.799999999999727
F-1.3920435838662903
F-0.0
F-250.0
F-250.0
tp630
sbsbsI65
g2
(g22
g23
(lp631
F0.33695814684955394
aF0.18262341796296178
aF0.07559491359831708
aF0.00035049329108431356
aF0.004626617696735311
aF0.02354689391081941
aF303.7619597577892
atp632
Rp633
(dp634
g28
I65
sg273
g274
(g278
S'\x00\x00\x00\x00\x00\x00\xf8\x7f'
p635
tp636
Rp637
sg29
g2
(g30
g4
Ntp638
Rp639
(dp640
g34
g45
sg36
(F-250.0
F-250.0
F-250.0
F-250.0
F-250.0
F-250.0
F-250.0
F-250.0
F-250.0
F-250.0
F-250.0
F-250.0
F-250.0
F-250.0
F-250.0
F-250.0
F-250.0
F-250.0
F-250.0
F-250.0
F-250.0
F-250.0
F-250.0
F-250.0
F-250.0
F-250.0
F-250.0
F-250.0
F-250.0
F-250.0
F-1.9999999999995453
F-0.7740363646503624
F-0.0
F-250.0
F-250.0
tp641
sbsbsI66
g2
(g22
g23
(lp642
F0.7306917332469746
aF0.49581224138185065
aF0.018598872065077307
aF0.000870520872320806
aF0.0021878103733768864
aF0.04672679168066896
aF645.7671444696302
atp643
Rp644
(dp645
g28
I66
sg273
g274
(g278
S'\x00\x00\x00\x00\x00\x00\xf8\x7f'
p646
tp647
Rp648
sg29
g2
(g30
g4
Ntp649
Rp650
(dp651
g34
g72
sg36
(F-250.0
F-250.0
F-250.0
F-250.0
F-250.0
F-250.0
F-250.0
F-250.0
F-250.0
F-250.0
F-4.147486670652803
F-250.0
F-250.0
F-250.0
F-250.0
F-3.225648611743105
F-3.6764705883045092
F-10.552681257001927
F-250.0
F-58.77016128983282
F-250.0
F-250.0
F-250.0
F-250.0
F-250.0
F-250.0
F-250.0
F-250.0
F-250.0
F-250.0
F-2.399999999999636
F-1.4438252983747362
F-0.0
F-250.0
F-250.0
tp652
sbsbsI67
g2
(g22
g23
(lp653
F0.597364444000435
aF0.3356717302820147
aF0.027513282941430545
aF0.00046608954339151363
aF0.002208008505279363
aF0.023124293780305095
aF303.9859822986759
atp654
Rp655
(dp656
g28
I67
sg273
g274
(g278
S'\x00\x00\x00\x00\x00\x00\xf8\x7f'
p657
tp658
Rp659
sg29
g2
(g30
g4
Ntp660
Rp661
(dp662
g34
g72
sg36
(F-250.0
F-250.0
F-250.0
F-250.0
F-250.0
F-250.0
F-250.0
F-250.0
F-250.0
F-250.0
F-4.3903063996621885
F-250.0
F-250.0
F-250.0
F-250.0
F-3.111857077833202
F-3.4558823530103413
F-10.978558209322356
F-250.0
F-60.36184210475424
F-250.0
F-250.0
F-250.0
F-250.0
F-250.0
F-250.0
F-250.0
F-250.0
F-250.0
F-250.0
F-2.399999999999636
F-0.7228682997417067
F-0.0
F-250.0
F-250.0
tp663
sbsbsI68
g2
(g22
g23
(lp664
F0.7231257760677935
aF0.4403510461163581
aF0.05396019612387677
aF0.0007392212686480406
aF0.008698465893547511
aF0.023252465836491605
aF329.7295675139741
atp665
Rp666
(dp667
g28
I68
sg273
g274
(g278
S'\x00\x00\x00\x00\x00\x00\xf8\x7f'
p668
tp669
Rp670
sg29
g2
(g30
g4
Ntp671
Rp672
(dp673
g34
g90
sg36
(F-250.0
F-250.0
F-250.0
F-250.0
F-250.0
F-250.0
F-250.0
F-250.0
F-250.0
F-250.0
F-250.0
F-250.0
F-250.0
F-250.0
F-250.0
F-250.0
F-250.0
F-250.0
F-250.0
F-250.0
F-250.0
F-250.0
F-250.0
F-250.0
F-250.0
F-250.0
F-250.0
F-250.0
F-250.0
F-250.0
F-2.399999999999636
F-1.5907344788525208
F-0.0
F-250.0
F-250.0
tp674
sbsbsI69
g2
(g22
g23
(lp675
F0.1088364893548045
aF0.8512118391817036
aF0.008364167529095985
aF0.00013110957004170372
aF0.005132439390777876
aF0.02288717982928048
aF126.05805037246124
atp676
Rp677
(dp678
g28
I69
sg273
g274
(g278
S'\x00\x00\x00\x00\x00\x00\xf8\x7f'
p679
tp680
Rp681
sg29
g2
(g30
g4
Ntp682
Rp683
(dp684
g34
g35
sg36
(F-250.0
F-250.0
F-250.0
F-250.0
F-250.0
F-250.0
F-250.0
F-250.0
F-250.0
F-250.0
F-250.0
F-250.0
F-250.0
F-250.0
F-250.0
F-250.0
F-250.0
F-250.0
F-250.0
F-250.0
F-250.0
F-250.0
F-250.0
F-250.0
F-250.0
F-250.0
F-250.0
F-250.0
F-250.0
F-250.0
F-250.0
F-250.0
F-100.0
F-250.0
F-250.0
tp685
sbsbsI70
g2
(g22
g23
(lp686
F0.6497888948355937
aF0.12092273950523147
aF0.04787444714260955
aF0.000892444617150416
aF0.009091104766914973
aF0.025508411993956023
aF921.808333364022
atp687
Rp688
(dp689
g28
I70
sg273
g274
(g278
S'\x00\x00\x00\x00\x00\x00\xf8\x7f'
p690
tp691
Rp692
sg29
g2
(g30
g4
Ntp693
Rp694
(dp695
g34
g99
sg36
(F-250.0
F-250.0
F-250.0
F-250.0
F-250.0
F-250.0
F-250.0
F-250.0
F-250.0
F-250.0
F-1.3225080905240845
F-250.0
F-250.0
F-250.0
F-250.0
F-3.111857077833202
F-2.2794117647747796
F-11.373071548144129
F-250.0
F-70.0367647052491
F-250.0
F-250.0
F-250.0
F-250.0
F-250.0
F-250.0
F-250.0
F-250.0
F-250.0
F-250.0
F-1.9999999999995453
F-1.9783974649172833
F-0.0
F-250.0
F-250.0
tp696
sbsbsI71
g2
(g22
g23
(lp697
F0.33695814684955394
aF0.18262341796296178
aF0.07559491359831708
aF0.00035049329108431356
aF0.004626617696735311
aF0.02354689391081941
aF303.7619597577892
atp698
Rp699
(dp700
g28
I71
sg273
g274
(g278
S'\x00\x00\x00\x00\x00\x00\xf8\x7f'
p701
tp702
Rp703
sg29
g2
(g30
g4
Ntp704
Rp705
(dp706
g34
g45
sg36
g641
sbsbsI72
g2
(g22
g23
(lp707
F0.5415345350814206
aF0.9798461773506095
aF0.03770344510466205
aF0.00021659939713061338
aF0.009194505081538875
aF0.001540542809310357
aF274.6718889967158
atp708
Rp709
(dp710
g28
I72
sg273
g274
(g278
S'\x00\x00\x00\x00\x00\x00\xf8\x7f'
p711
tp712
Rp713
sg29
g2
(g30
g4
Ntp714
Rp715
(dp716
g34
g63
sg36
g220
sbsbsI73
g2
(g22
g23
(lp717
F0.670305566414071
aF0.3033685109329176
aF0.05875806061435595
aF0.0008824790008318577
aF0.008461974184283128
aF0.025511549118690222
aF597.2222128229007
atp718
Rp719
(dp720
g28
I73
sg273
g274
(g278
S'\x00\x00\x00\x00\x00\x00\xf8\x7f'
p721
tp722
Rp723
sg29
g2
(g30
g4
Ntp724
Rp725
(dp726
g34
g99
sg36
g100
sbsbsI74
g2
(g22
g23
(lp727
F0.5979563286604228
aF0.43951887261322553
aF0.07214844075832684
aF0.0007111917696952796
aF0.008695221214089823
aF0.02312638806277889
aF329.7295675139741
atp728
Rp729
(dp730
g28
I74
sg273
g274
(g278
S'\x00\x00\x00\x00\x00\x00\xf8\x7f'
p731
tp732
Rp733
sg29
g2
(g30
g4
Ntp734
Rp735
(dp736
g34
g90
sg36
g486
sbsbsI75
g2
(g22
g23
(lp737
F0.08158008455512855
aF0.8474337369372327
aF0.008364167529095985
aF0.00029527601763787534
aF0.004990507869547125
aF0.02288717982928048
aF105.20284370819755
atp738
Rp739
(dp740
g28
I75
sg273
g274
(g278
S'\x00\x00\x00\x00\x00\x00\xf8\x7f'
p741
tp742
Rp743
sg29
g2
(g30
g4
Ntp744
Rp745
(dp746
g34
g35
sg36
g431
sbsbsI76
g2
(g22
g23
(lp747
F0.7231257760677935
aF0.4403510461163581
aF0.05396019612387677
aF0.0007392212686480406
aF0.008698465893547511
aF0.023252465836491605
aF329.7295675139741
atp748
Rp749
(dp750
g28
I76
sg273
g274
(g278
S'\x00\x00\x00\x00\x00\x00\xf8\x7f'
p751
tp752
Rp753
sg29
g2
(g30
g4
Ntp754
Rp755
(dp756
g34
g90
sg36
g674
sbsbsI77
g2
(g22
g23
(lp757
F0.597364444000435
aF0.3356717302820147
aF0.027513282941430545
aF0.00046608954339151363
aF0.002208008505279363
aF0.023124293780305095
aF303.9859822986759
atp758
Rp759
(dp760
g28
I77
sg273
g274
(g278
S'\x00\x00\x00\x00\x00\x00\xf8\x7f'
p761
tp762
Rp763
sg29
g2
(g30
g4
Ntp764
Rp765
(dp766
g34
g72
sg36
g663
sbsbsI78
g2
(g22
g23
(lp767
F0.33695814684955394
aF0.18262341796296178
aF0.07559491359831708
aF0.00035049329108431356
aF0.004626617696735311
aF0.02354689391081941
aF303.7619597577892
atp768
Rp769
(dp770
g28
I78
sg273
g274
(g278
S'\x00\x00\x00\x00\x00\x00\xf8\x7f'
p771
tp772
Rp773
sg29
g2
(g30
g4
Ntp774
Rp775
(dp776
g34
g45
sg36
g641
sbsbsI79
g2
(g22
g23
(lp777
F0.597364444000435
aF0.3356717302820147
aF0.027513282941430545
aF0.00046608954339151363
aF0.002208008505279363
aF0.023124293780305095
aF303.9859822986759
atp778
Rp779
(dp780
g28
I79
sg273
g274
(g278
S'\x00\x00\x00\x00\x00\x00\xf8\x7f'
p781
tp782
Rp783
sg29
g2
(g30
g4
Ntp784
Rp785
(dp786
g34
g72
sg36
g663
sbsbsI80
g2
(g22
g23
(lp787
F0.7235339093975051
aF0.0938595867742349
aF0.07155889629561246
aF0.0009429534906811585
aF0.00443994074794373
aF0.042623425250241154
aF645.5429887294033
atp788
Rp789
(dp790
g28
I80
sg273
g274
(g278
S'\x00\x00\x00\x00\x00\x00\xf8\x7f'
p791
tp792
Rp793
sg29
g2
(g30
g4
Ntp794
Rp795
(dp796
g34
g45
sg36
g442
sbsbsI81
g2
(g22
g23
(lp797
F0.34563546864196726
aF0.0787877536906667
aF0.07882461450337573
aF0.00035049329108431356
aF0.003024677236316873
aF0.02354689391081941
aF303.7619597577892
atp798
Rp799
(dp800
g28
I81
sg273
g274
(g278
S'\x00\x00\x00\x00\x00\x00\xf8\x7f'
p801
tp802
Rp803
sg29
g2
(g30
g4
Ntp804
Rp805
(dp806
g34
g45
sg36
(F-250.0
F-250.0
F-250.0
F-250.0
F-250.0
F-250.0
F-250.0
F-250.0
F-250.0
F-250.0
F-8.417969590936291
F-250.0
F-250.0
F-250.0
F-250.0
F-3.111857077833202
F-3.9705882353633997
F-11.582615960670813
F-250.0
F-56.74135220079198
F-250.0
F-250.0
F-250.0
F-250.0
F-250.0
F-250.0
F-250.0
F-250.0
F-250.0
F-250.0
F-1.5999999999994543
F-0.024212478245191703
F-0.0
F-250.0
F-250.0
tp807
sbsbsI82
g2
(g22
g23
(lp808
F0.5415345350814206
aF0.952390099935867
aF0.03706592988932371
aF0.00021659939713061338
aF0.009758359994039222
aF0.001540542809310357
aF274.6718889967158
atp809
Rp810
(dp811
g28
I82
sg273
g274
(g278
S'\x00\x00\x00\x00\x00\x00\xf8\x7f'
p812
tp813
Rp814
sg29
g2
(g30
g4
Ntp815
Rp816
(dp817
g34
g63
sg36
(F-250.0
F-250.0
F-250.0
F-250.0
F-250.0
F-250.0
F-250.0
F-250.0
F-250.0
F-250.0
F-250.0
F-250.0
F-250.0
F-250.0
F-250.0
F-250.0
F-250.0
F-250.0
F-250.0
F-250.0
F-250.0
F-250.0
F-250.0
F-250.0
F-250.0
F-250.0
F-250.0
F-250.0
F-250.0
F-250.0
F-2.799999999999727
F-0.7989299206805555
F-0.0
F-250.0
F-250.0
tp818
sbsbsI83
g2
(g22
g23
(lp819
F0.7082933603441539
aF0.3033685109329176
aF0.07147936356161416
aF0.0008824790008318577
aF0.008465831374776522
aF0.02301360603379084
aF591.0880885537516
atp820
Rp821
(dp822
g28
I83
sg273
g274
(g278
S'\x00\x00\x00\x00\x00\x00\xf8\x7f'
p823
tp824
Rp825
sg29
g2
(g30
g4
Ntp826
Rp827
(dp828
g34
g99
sg36
(F-250.0
F-250.0
F-250.0
F-250.0
F-250.0
F-250.0
F-250.0
F-250.0
F-250.0
F-250.0
F-2.7571066408865454
F-250.0
F-250.0
F-250.0
F-250.0
F-3.225648611743105
F-3.014705882422006
F-11.549846731980436
F-250.0
F-63.74143835561357
F-250.0
F-250.0
F-250.0
F-250.0
F-250.0
F-250.0
F-250.0
F-250.0
F-250.0
F-250.0
F-2.399999999999636
F-1.6493372225050762
F-0.0
F-250.0
F-250.0
tp829
sbsbsI84
g2
(g22
g23
(lp830
F0.6576427726069749
aF0.43951887261322553
aF0.05942713780710454
aF0.0006919404790187617
aF0.008691364023596425
aF0.02562433114767827
aF335.86370133247254
atp831
Rp832
(dp833
g28
I84
sg273
g274
(g278
S'\x00\x00\x00\x00\x00\x00\xf8\x7f'
p834
tp835
Rp836
sg29
g2
(g30
g4
Ntp837
Rp838
(dp839
g34
g90
sg36
(F-250.0
F-250.0
F-250.0
F-250.0
F-250.0
F-250.0
F-250.0
F-250.0
F-250.0
F-250.0
F-250.0
F-250.0
F-250.0
F-250.0
F-250.0
F-250.0
F-250.0
F-250.0
F-250.0
F-250.0
F-250.0
F-250.0
F-250.0
F-250.0
F-250.0
F-250.0
F-250.0
F-250.0
F-250.0
F-250.0
F-2.5999999999996817
F-0.9658967523056269
F-0.0
F-250.0
F-250.0
tp840
sbsbsI85
g2
(g22
g23
(lp841
F0.08158008455512855
aF0.7631242528494413
aF0.01265441512581061
aF0.000656188319197574
aF0.006559745264121203
aF0.022855735118570936
aF105.20284370819755
atp842
Rp843
(dp844
g28
I85
sg273
g274
(g278
S'\x00\x00\x00\x00\x00\x00\xf8\x7f'
p845
tp846
Rp847
sg29
g2
(g30
g4
Ntp848
Rp849
(dp850
g34
g35
sg36
(F-250.0
F-250.0
F-250.0
F-250.0
F-250.0
F-250.0
F-250.0
F-250.0
F-250.0
F-250.0
F-250.0
F-250.0
F-250.0
F-250.0
F-250.0
F-250.0
F-250.0
F-250.0
F-250.0
F-250.0
F-250.0
F-250.0
F-250.0
F-250.0
F-250.0
F-250.0
F-250.0
F-250.0
F-250.0
F-250.0
F-250.0
F-250.0
F-100.0
F-250.0
F-250.0
tp851
sbsbsI86
g2
(g22
g23
(lp852
F0.7231257760677935
aF0.4403510461163581
aF0.05396019612387677
aF0.0002566512724739345
aF0.008392472687460555
aF0.023283910547201147
aF356.1832298919248
atp853
Rp854
(dp855
g28
I86
sg273
g274
(g278
S'\x00\x00\x00\x00\x00\x00\xf8\x7f'
p856
tp857
Rp858
sg29
g2
(g30
g4
Ntp859
Rp860
(dp861
g34
g90
sg36
(F-250.0
F-250.0
F-250.0
F-250.0
F-250.0
F-250.0
F-250.0
F-250.0
F-250.0
F-250.0
F-250.0
F-250.0
F-250.0
F-250.0
F-250.0
F-250.0
F-250.0
F-250.0
F-250.0
F-250.0
F-250.0
F-250.0
F-250.0
F-250.0
F-250.0
F-250.0
F-250.0
F-250.0
F-250.0
F-250.0
F-2.399999999999636
F-1.6062783586089637
F-0.0
F-250.0
F-250.0
tp862
sbsbsI87
g2
(g22
g23
(lp863
F0.5985156870323121
aF0.3356717302820147
aF0.027513282941430545
aF0.0003502374437137977
aF0.0024940921746467214
aF0.023124293780305095
aF303.9859822986759
atp864
Rp865
(dp866
g28
I87
sg273
g274
(g278
S'\x00\x00\x00\x00\x00\x00\xf8\x7f'
p867
tp868
Rp869
sg29
g2
(g30
g4
Ntp870
Rp871
(dp872
g34
g72
sg36
(F-250.0
F-250.0
F-250.0
F-250.0
F-250.0
F-250.0
F-250.0
F-250.0
F-250.0
F-250.0
F-4.405394344085302
F-250.0
F-250.0
F-250.0
F-250.0
F-3.111857077833202
F-3.4558823530103413
F-10.978833059378259
F-250.0
F-60.36184210475424
F-250.0
F-250.0
F-250.0
F-250.0
F-250.0
F-250.0
F-250.0
F-250.0
F-250.0
F-250.0
F-2.399999999999636
F-0.7151278232715065
F-0.0
F-250.0
F-250.0
tp873
sbsbsI88
g2
(g22
g23
(lp874
F0.317587804257065
aF0.18262341796296178
aF0.07559491359831708
aF0.00046634539076333446
aF0.004626617696735311
aF0.02354689391081941
aF303.7619597577892
atp875
Rp876
(dp877
g28
I88
sg273
g274
(g278
S'\x00\x00\x00\x00\x00\x00\xf8\x7f'
p878
tp879
Rp880
sg29
g2
(g30
g4
Ntp881
Rp882
(dp883
g34
g45
sg36
(F-250.0
F-250.0
F-250.0
F-250.0
F-250.0
F-250.0
F-250.0
F-250.0
F-250.0
F-250.0
F-250.0
F-250.0
F-250.0
F-250.0
F-250.0
F-250.0
F-250.0
F-250.0
F-250.0
F-250.0
F-250.0
F-250.0
F-250.0
F-250.0
F-250.0
F-250.0
F-250.0
F-250.0
F-250.0
F-250.0
F-2.1999999999995907
F-0.9207429431099428
F-0.0
F-250.0
F-250.0
tp884
sbsbsI89
g2
(g22
g23
(lp885
F0.6615833127317525
aF0.15552664099278798
aF0.024101164705622496
aF0.00036715043043809425
aF0.002052131256900013
aF0.018559005514929967
aF412.90037877581534
atp886
Rp887
(dp888
g28
I89
sg273
g274
(g278
S'\x00\x00\x00\x00\x00\x00\xf8\x7f'
p889
tp890
Rp891
sg29
g2
(g30
g4
Ntp892
Rp893
(dp894
g34
g72
sg36
(F-250.0
F-250.0
F-250.0
F-250.0
F-250.0
F-250.0
F-250.0
F-250.0
F-250.0
F-250.0
F-1.3091840839159554
F-250.0
F-250.0
F-250.0
F-250.0
F-2.770482476103493
F-2.3529411765395025
F-10.849721998539573
F-250.0
F-69.36587591178456
F-9.878055990393538
F-250.0
F-250.0
F-250.0
F-250.0
F-2.255900786771236
F-7.0023630803793715
F-12.884494081915541
F-250.0
F-16.90757109181441
F-1.7999999999994998
F-1.9382020770045074
F-0.0
F-250.0
F-250.0
tp895
sbsbsI90
g2
(g22
g23
(lp896
F0.9920331419682608
aF0.33740557566863616
aF0.07155889629561246
aF0.0009170830233870635
aF0.005147533373149236
aF0.04457735631945751
aF859.8596207919761
atp897
Rp898
(dp899
g28
I90
sg273
g274
(g278
S'\x00\x00\x00\x00\x00\x00\xf8\x7f'
p900
tp901
Rp902
sg29
g2
(g30
g4
Ntp903
Rp904
(dp905
g34
g45
sg36
(F-250.0
F-250.0
F-250.0
F-250.0
F-250.0
F-250.0
F-250.0
F-250.0
F-250.0
F-250.0
F-0.48171155063694177
F-250.0
F-250.0
F-250.0
F-250.0
F-3.339440145653008
F-2.2794117647747796
F-11.550267176223596
F-250.0
F-70.0367647052491
F-250.0
F-250.0
F-250.0
F-250.0
F-250.0
F-250.0
F-250.0
F-250.0
F-250.0
F-250.0
F-2.399999999999636
F-2.7717791704288417
F-0.0
F-250.0
F-250.0
tp906
sbsbsI91
g2
(g22
g23
(lp907
F0.08158008455512855
aF0.7631242528494413
aF0.01265441512581061
aF0.000656188319197574
aF0.006559745264121203
aF0.022855735118570936
aF105.20284370819755
atp908
Rp909
(dp910
g28
I91
sg273
g274
(g278
S'\x00\x00\x00\x00\x00\x00\xf8\x7f'
p911
tp912
Rp913
sg29
g2
(g30
g4
Ntp914
Rp915
(dp916
g34
g35
sg36
g851
sbsbsI92
g2
(g22
g23
(lp917
F0.08158008455512855
aF0.8474337369372327
aF0.008364167529095985
aF0.00029527601763787534
aF0.004990507869547125
aF0.02288717982928048
aF105.20284370819755
atp918
Rp919
(dp920
g28
I92
sg273
g274
(g278
S'\x00\x00\x00\x00\x00\x00\xf8\x7f'
p921
tp922
Rp923
sg29
g2
(g30
g4
Ntp924
Rp925
(dp926
g34
g35
sg36
g431
sbsbsI93
g2
(g22
g23
(lp927
F0.9920331419682608
aF0.33740557566863616
aF0.07155889629561246
aF0.0009170830233870635
aF0.005147533373149236
aF0.04457735631945751
aF859.8596207919761
atp928
Rp929
(dp930
g28
I93
sg273
g274
(g278
S'\x00\x00\x00\x00\x00\x00\xf8\x7f'
p931
tp932
Rp933
sg29
g2
(g30
g4
Ntp934
Rp935
(dp936
g34
g45
sg36
g906
sbsbsI94
g2
(g22
g23
(lp937
F0.5415345350814206
aF0.9798461773506095
aF0.03770344510466205
aF0.00021659939713061338
aF0.009194505081538875
aF0.001540542809310357
aF274.6718889967158
atp938
Rp939
(dp940
g28
I94
sg273
g274
(g278
S'\x00\x00\x00\x00\x00\x00\xf8\x7f'
p941
tp942
Rp943
sg29
g2
(g30
g4
Ntp944
Rp945
(dp946
g34
g63
sg36
g220
sbsbsI95
g2
(g22
g23
(lp947
F0.34563546864196726
aF0.0787877536906667
aF0.07882461450337573
aF0.00035049329108431356
aF0.003024677236316873
aF0.02354689391081941
aF303.7619597577892
atp948
Rp949
(dp950
g28
I95
sg273
g274
(g278
S'\x00\x00\x00\x00\x00\x00\xf8\x7f'
p951
tp952
Rp953
sg29
g2
(g30
g4
Ntp954
Rp955
(dp956
g34
g45
sg36
g807
sbsbsI96
g2
(g22
g23
(lp957
F0.670305566414071
aF0.3033685109329176
aF0.05875806061435595
aF0.0008824790008318577
aF0.008461974184283128
aF0.025511549118690222
aF597.2222128229007
atp958
Rp959
(dp960
g28
I96
sg273
g274
(g278
S'\x00\x00\x00\x00\x00\x00\xf8\x7f'
p961
tp962
Rp963
sg29
g2
(g30
g4
Ntp964
Rp965
(dp966
g34
g99
sg36
g100
sbsbsI97
g2
(g22
g23
(lp967
F0.670305566414071
aF0.3033685109329176
aF0.05875806061435595
aF0.0008824790008318577
aF0.008461974184283128
aF0.025511549118690222
aF597.2222128229007
atp968
Rp969
(dp970
g28
I97
sg273
g274
(g278
S'\x00\x00\x00\x00\x00\x00\xf8\x7f'
p971
tp972
Rp973
sg29
g2
(g30
g4
Ntp974
Rp975
(dp976
g34
g99
sg36
g100
sbsbsI98
g2
(g22
g23
(lp977
F0.7231257760677935
aF0.4403510461163581
aF0.05396019612387677
aF0.0002566512724739345
aF0.008392472687460555
aF0.023283910547201147
aF356.1832298919248
atp978
Rp979
(dp980
g28
I98
sg273
g274
(g278
S'\x00\x00\x00\x00\x00\x00\xf8\x7f'
p981
tp982
Rp983
sg29
g2
(g30
g4
Ntp984
Rp985
(dp986
g34
g90
sg36
g862
sbsbsI99
g2
(g22
g23
(lp987
F0.5415345350814206
aF0.9798461773506095
aF0.03770344510466205
aF0.00021659939713061338
aF0.009194505081538875
aF0.001540542809310357
aF274.6718889967158
atp988
Rp989
(dp990
g28
I99
sg273
g274
(g278
S'\x00\x00\x00\x00\x00\x00\xf8\x7f'
p991
tp992
Rp993
sg29
g2
(g30
g4
Ntp994
Rp995
(dp996
g34
g63
sg36
g220
sbsbsI100
g2
(g22
g23
(lp997
F0.34563546864196726
aF0.0787877536906667
aF0.07882461450337573
aF0.00035049329108431356
aF0.003024677236316873
aF0.02354689391081941
aF303.7619597577892
atp998
Rp999
(dp1000
g28
I100
sg273
g274
(g278
S'\x00\x00\x00\x00\x00\x00\xf8\x7f'
p1001
tp1002
Rp1003
sg29
g2
(g30
g4
Ntp1004
Rp1005
(dp1006
g34
g45
sg36
g807
sbsbsI101
g2
(g22
g23
(lp1007
F0.09469324322811667
aF0.7631242528494413
aF0.00022802949317822507
aF0.0006123341577502192
aF0.006559745264121203
aF0.01938759485401076
aF105.20284370819755
atp1008
Rp1009
(dp1010
g28
I101
sg273
g274
(g278
S'\x00\x00\x00\x00\x00\x00\xf8\x7f'
p1011
tp1012
Rp1013
sg29
g2
(g30
g4
Ntp1014
Rp1015
(dp1016
g34
g35
sg36
(F-250.0
F-250.0
F-250.0
F-250.0
F-250.0
F-250.0
F-250.0
F-250.0
F-250.0
F-250.0
F-250.0
F-250.0
F-250.0
F-250.0
F-250.0
F-250.0
F-250.0
F-250.0
F-250.0
F-250.0
F-250.0
F-250.0
F-250.0
F-250.0
F-250.0
F-250.0
F-250.0
F-250.0
F-250.0
F-250.0
F-250.0
F-250.0
F-100.0
F-250.0
F-250.0
tp1017
sbsbsI102
g2
(g22
g23
(lp1018
F0.10191548060822286
aF0.8474337369372327
aF0.006235768430439343
aF0.00023627595255902242
aF0.004990507869547125
aF0.022887158174130454
aF39.401280757873764
atp1019
Rp1020
(dp1021
g28
I102
sg273
g274
(g278
S'\x00\x00\x00\x00\x00\x00\xf8\x7f'
p1022
tp1023
Rp1024
sg29
g2
(g30
g4
Ntp1025
Rp1026
(dp1027
g34
g35
sg36
(F-250.0
F-250.0
F-250.0
F-250.0
F-250.0
F-250.0
F-250.0
F-250.0
F-250.0
F-250.0
F-250.0
F-250.0
F-250.0
F-250.0
F-250.0
F-250.0
F-250.0
F-250.0
F-250.0
F-250.0
F-250.0
F-250.0
F-250.0
F-250.0
F-250.0
F-250.0
F-250.0
F-250.0
F-250.0
F-250.0
F-250.0
F-250.0
F-100.0
F-250.0
F-250.0
tp1028
sbsbsI103
g2
(g22
g23
(lp1029
F0.9514571978975626
aF0.7813032073199632
aF0.06057500343195922
aF0.0009839007218031986
aF0.005147533373149236
aF0.045908166908591466
aF864.134775683087
atp1030
Rp1031
(dp1032
g28
I103
sg273
g274
(g278
S'\x00\x00\x00\x00\x00\x00\xf8\x7f'
p1033
tp1034
Rp1035
sg29
g2
(g30
g4
Ntp1036
Rp1037
(dp1038
g34
g45
sg36
(F-250.0
F-250.0
F-250.0
F-250.0
F-250.0
F-250.0
F-250.0
F-250.0
F-250.0
F-250.0
F-250.0
F-250.0
F-250.0
F-250.0
F-250.0
F-250.0
F-250.0
F-250.0
F-250.0
F-250.0
F-250.0
F-250.0
F-250.0
F-250.0
F-250.0
F-250.0
F-250.0
F-250.0
F-250.0
F-250.0
F-2.5999999999996817
F-1.3716778970904293
F-0.0
F-250.0
F-250.0
tp1039
sbsbsI104
g2
(g22
g23
(lp1040
F0.5415345350814206
aF0.41966628000338646
aF0.03770344510466205
aF0.00021659939713061338
aF0.009194505081538875
aF0.001540542809310357
aF311.12848909688165
atp1041
Rp1042
(dp1043
g28
I104
sg273
g274
(g278
S'\x00\x00\x00\x00\x00\x00\xf8\x7f'
p1044
tp1045
Rp1046
sg29
g2
(g30
g4
Ntp1047
Rp1048
(dp1049
g34
g63
sg36
(F-250.0
F-250.0
F-250.0
F-250.0
F-250.0
F-250.0
F-250.0
F-250.0
F-250.0
F-250.0
F-6.039430629687775
F-250.0
F-250.0
F-250.0
F-250.0
F-3.111857077833202
F-4.117647058892844
F-10.693264858647083
F-250.0
F-55.764751552340435
F-250.0
F-250.0
F-250.0
F-250.0
F-250.0
F-250.0
F-250.0
F-250.0
F-250.0
F-250.0
F-2.5999999999996817
F-0.08010787583289627
F-0.0
F-250.0
F-250.0
tp1050
sbsbsI105
g2
(g22
g23
(lp1051
F0.34563546864196726
aF0.0847570052610141
aF0.07766942960743062
aF0.00048529270928202847
aF0.003024677236316873
aF0.02354689391081941
aF305.2934231261661
atp1052
Rp1053
(dp1054
g28
I105
sg273
g274
(g278
S'\x00\x00\x00\x00\x00\x00\xf8\x7f'
p1055
tp1056
Rp1057
sg29
g2
(g30
g4
Ntp1058
Rp1059
(dp1060
g34
g45
sg36
(F-250.0
F-250.0
F-250.0
F-250.0
F-250.0
F-250.0
F-250.0
F-250.0
F-250.0
F-250.0
F-8.557786871196052
F-250.0
F-250.0
F-250.0
F-250.0
F-3.111857077833202
F-3.9705882353633997
F-11.57776063309916
F-250.0
F-56.74135220079198
F-250.0
F-250.0
F-250.0
F-250.0
F-250.0
F-250.0
F-250.0
F-250.0
F-250.0
F-250.0
F-1.7999999999994998
F-0.06000738335291515
F-0.0
F-250.0
F-250.0
tp1061
sbsbsI106
g2
(g22
g23
(lp1062
F0.6576452054853332
aF0.29741322260046094
aF0.054495569869355984
aF0.0008824790008318577
aF0.008268454435439082
aF0.02421657693270656
aF597.2222128229007
atp1063
Rp1064
(dp1065
g28
I106
sg273
g274
(g278
S'\x00\x00\x00\x00\x00\x00\xf8\x7f'
p1066
tp1067
Rp1068
sg29
g2
(g30
g4
Ntp1069
Rp1070
(dp1071
g34
g99
sg36
(F-250.0
F-250.0
F-250.0
F-250.0
F-250.0
F-250.0
F-250.0
F-250.0
F-250.0
F-250.0
F-3.418492787254132
F-250.0
F-250.0
F-250.0
F-250.0
F-3.225648611743105
F-3.0882352941867284
F-11.437939065379284
F-250.0
F-63.15901360489871
F-250.0
F-250.0
F-250.0
F-250.0
F-250.0
F-250.0
F-250.0
F-250.0
F-250.0
F-250.0
F-2.399999999999636
F-1.6449223880450163
F-0.0
F-250.0
F-250.0
tp1072
sbsbsI107
g2
(g22
g23
(lp1073
F0.7226753576986541
aF0.3033685109329176
aF0.058580323205571
aF0.0002675808495806029
aF0.00795712006823849
aF0.025511549118690222
aF505.23096032918573
atp1074
Rp1075
(dp1076
g28
I107
sg273
g274
(g278
S'\x00\x00\x00\x00\x00\x00\xf8\x7f'
p1077
tp1078
Rp1079
sg29
g2
(g30
g4
Ntp1080
Rp1081
(dp1082
g34
g99
sg36
(F-250.0
F-250.0
F-250.0
F-250.0
F-250.0
F-250.0
F-250.0
F-250.0
F-250.0
F-250.0
F-2.477017700729164
F-250.0
F-250.0
F-250.0
F-250.0
F-3.225648611743105
F-2.941176470657283
F-11.470704474862561
F-250.0
F-64.33189655116583
F-250.0
F-250.0
F-250.0
F-250.0
F-250.0
F-250.0
F-250.0
F-250.0
F-250.0
F-250.0
F-2.399999999999636
F-1.5684298050810952
F-0.0
F-250.0
F-250.0
tp1083
sbsbsI108
g2
(g22
g23
(lp1084
F0.6707559847832079
aF0.5395483778031026
aF0.05413793353266171
aF0.0009524997397348721
aF0.009237819860674658
aF0.022709824579103602
aF612.4657827274904
atp1085
Rp1086
(dp1087
g28
I108
sg273
g274
(g278
S'\x00\x00\x00\x00\x00\x00\xf8\x7f'
p1088
tp1089
Rp1090
sg29
g2
(g30
g4
Ntp1091
Rp1092
(dp1093
g34
g90
sg36
(F-250.0
F-250.0
F-250.0
F-250.0
F-250.0
F-250.0
F-250.0
F-250.0
F-250.0
F-250.0
F-250.0
F-250.0
F-250.0
F-250.0
F-250.0
F-250.0
F-250.0
F-250.0
F-250.0
F-250.0
F-250.0
F-250.0
F-250.0
F-250.0
F-250.0
F-250.0
F-250.0
F-250.0
F-250.0
F-250.0
F-2.5999999999996817
F-0.760383593318641
F-0.0
F-250.0
F-250.0
tp1094
sbsbsI109
g2
(g22
g23
(lp1095
F0.5415345350814206
aF0.9798461773506095
aF0.07880065614466858
aF0.0005355650061488185
aF0.0030020145196726434
aF0.001540542809310357
aF286.3785357358302
atp1096
Rp1097
(dp1098
g28
I109
sg273
g274
(g278
S'\x00\x00\x00\x00\x00\x00\xf8\x7f'
p1099
tp1100
Rp1101
sg29
g2
(g30
g4
Ntp1102
Rp1103
(dp1104
g34
g63
sg36
(F-250.0
F-250.0
F-250.0
F-250.0
F-250.0
F-250.0
F-250.0
F-250.0
F-250.0
F-250.0
F-250.0
F-250.0
F-250.0
F-250.0
F-250.0
F-250.0
F-250.0
F-250.0
F-250.0
F-250.0
F-250.0
F-250.0
F-250.0
F-250.0
F-250.0
F-250.0
F-250.0
F-250.0
F-250.0
F-250.0
F-2.9999999999997726
F-1.653560542205095
F-0.0
F-250.0
F-250.0
tp1105
sbsbsI110
g2
(g22
g23
(lp1106
F0.4172526971717285
aF0.0787877536906667
aF0.05448549616948855
aF0.00024528776356873305
aF0.009150080493964489
aF0.025851945363876597
aF122.51148739232352
atp1107
Rp1108
(dp1109
g28
I110
sg273
g274
(g278
S'\x00\x00\x00\x00\x00\x00\xf8\x7f'
p1110
tp1111
Rp1112
sg29
g2
(g30
g4
Ntp1113
Rp1114
(dp1115
g34
g45
sg36
(F-250.0
F-250.0
F-250.0
F-250.0
F-250.0
F-250.0
F-250.0
F-250.0
F-250.0
F-250.0
F-250.0
F-250.0
F-250.0
F-250.0
F-250.0
F-250.0
F-250.0
F-250.0
F-250.0
F-250.0
F-250.0
F-250.0
F-250.0
F-250.0
F-250.0
F-250.0
F-250.0
F-250.0
F-250.0
F-250.0
F-1.5999999999994543
F-0.6625739012156551
F-0.0
F-250.0
F-250.0
tp1116
sbsbsI111
g2
(g22
g23
(lp1117
F0.9920331419682608
aF0.33740557566863616
aF0.07155889629561246
aF0.0009170830233870635
aF0.005147533373149236
aF0.04457735631945751
aF859.8596207919761
atp1118
Rp1119
(dp1120
g28
I111
sg273
g274
(g278
S'\x00\x00\x00\x00\x00\x00\xf8\x7f'
p1121
tp1122
Rp1123
sg29
g2
(g30
g4
Ntp1124
Rp1125
(dp1126
g34
g45
sg36
g906
sbsbsI112
g2
(g22
g23
(lp1127
F0.670305566414071
aF0.3033685109329176
aF0.05875806061435595
aF0.0008824790008318577
aF0.008461974184283128
aF0.025511549118690222
aF597.2222128229007
atp1128
Rp1129
(dp1130
g28
I112
sg273
g274
(g278
S'\x00\x00\x00\x00\x00\x00\xf8\x7f'
p1131
tp1132
Rp1133
sg29
g2
(g30
g4
Ntp1134
Rp1135
(dp1136
g34
g99
sg36
g100
sbsbsI113
g2
(g22
g23
(lp1137
F0.7226753576986541
aF0.3033685109329176
aF0.058580323205571
aF0.0002675808495806029
aF0.00795712006823849
aF0.025511549118690222
aF505.23096032918573
atp1138
Rp1139
(dp1140
g28
I113
sg273
g274
(g278
S'\x00\x00\x00\x00\x00\x00\xf8\x7f'
p1141
tp1142
Rp1143
sg29
g2
(g30
g4
Ntp1144
Rp1145
(dp1146
g34
g99
sg36
g1083
sbsbsI114
g2
(g22
g23
(lp1147
F0.34563546864196726
aF0.0787877536906667
aF0.07882461450337573
aF0.00035049329108431356
aF0.003024677236316873
aF0.02354689391081941
aF303.7619597577892
atp1148
Rp1149
(dp1150
g28
I114
sg273
g274
(g278
S'\x00\x00\x00\x00\x00\x00\xf8\x7f'
p1151
tp1152
Rp1153
sg29
g2
(g30
g4
Ntp1154
Rp1155
(dp1156
g34
g45
sg36
g807
sbsbsI115
g2
(g22
g23
(lp1157
F0.6576452054853332
aF0.29741322260046094
aF0.054495569869355984
aF0.0008824790008318577
aF0.008268454435439082
aF0.02421657693270656
aF597.2222128229007
atp1158
Rp1159
(dp1160
g28
I115
sg273
g274
(g278
S'\x00\x00\x00\x00\x00\x00\xf8\x7f'
p1161
tp1162
Rp1163
sg29
g2
(g30
g4
Ntp1164
Rp1165
(dp1166
g34
g99
sg36
g1072
sbsbsI116
g2
(g22
g23
(lp1167
F0.670305566414071
aF0.3033685109329176
aF0.05875806061435595
aF0.0008824790008318577
aF0.008461974184283128
aF0.025511549118690222
aF597.2222128229007
atp1168
Rp1169
(dp1170
g28
I116
sg273
g274
(g278
S'\x00\x00\x00\x00\x00\x00\xf8\x7f'
p1171
tp1172
Rp1173
sg29
g2
(g30
g4
Ntp1174
Rp1175
(dp1176
g34
g99
sg36
g100
sbsbsI117
g2
(g22
g23
(lp1177
F0.08158008455512855
aF0.8474337369372327
aF0.008364167529095985
aF0.00029527601763787534
aF0.004990507869547125
aF0.02288717982928048
aF105.20284370819755
atp1178
Rp1179
(dp1180
g28
I117
sg273
g274
(g278
S'\x00\x00\x00\x00\x00\x00\xf8\x7f'
p1181
tp1182
Rp1183
sg29
g2
(g30
g4
Ntp1184
Rp1185
(dp1186
g34
g35
sg36
g431
sbsbsI118
g2
(g22
g23
(lp1187
F0.7226753576986541
aF0.3033685109329176
aF0.058580323205571
aF0.0002675808495806029
aF0.00795712006823849
aF0.025511549118690222
aF505.23096032918573
atp1188
Rp1189
(dp1190
g28
I118
sg273
g274
(g278
S'\x00\x00\x00\x00\x00\x00\xf8\x7f'
p1191
tp1192
Rp1193
sg29
g2
(g30
g4
Ntp1194
Rp1195
(dp1196
g34
g99
sg36
g1083
sbsbsI119
g2
(g22
g23
(lp1197
F0.09469324322811667
aF0.7631242528494413
aF0.00022802949317822507
aF0.0006123341577502192
aF0.006559745264121203
aF0.01938759485401076
aF105.20284370819755
atp1198
Rp1199
(dp1200
g28
I119
sg273
g274
(g278
S'\x00\x00\x00\x00\x00\x00\xf8\x7f'
p1201
tp1202
Rp1203
sg29
g2
(g30
g4
Ntp1204
Rp1205
(dp1206
g34
g35
sg36
g1017
sbsbsI120
g2
(g22
g23
(lp1207
F0.5415345350814206
aF0.9798461773506095
aF0.03770344510466205
aF0.00021659939713061338
aF0.009194505081538875
aF0.001540542809310357
aF274.6718889967158
atp1208
Rp1209
(dp1210
g28
I120
sg273
g274
(g278
S'\x00\x00\x00\x00\x00\x00\xf8\x7f'
p1211
tp1212
Rp1213
sg29
g2
(g30
g4
Ntp1214
Rp1215
(dp1216
g34
g63
sg36
g220
sbsbsI121
g2
(g22
g23
(lp1217
F0.9920331419682608
aF0.370419340129366
aF0.07268272446124224
aF0.000917999439581282
aF0.0071367070174700896
aF0.030387676959690496
aF859.1504478993284
atp1218
Rp1219
(dp1220
g28
I121
sg273
g274
(g278
S'\x00\x00\x00\x00\x00\x00\xf8\x7f'
p1221
tp1222
Rp1223
sg29
g2
(g30
g4
Ntp1224
Rp1225
(dp1226
g34
g45
sg36
(F-250.0
F-250.0
F-250.0
F-250.0
F-250.0
F-250.0
F-250.0
F-250.0
F-250.0
F-250.0
F-0.06103677484996493
F-250.0
F-250.0
F-250.0
F-250.0
F-3.225648611743105
F-2.3529411765395025
F-11.555824834516478
F-250.0
F-69.36587591178456
F-250.0
F-250.0
F-250.0
F-250.0
F-250.0
F-250.0
F-250.0
F-250.0
F-250.0
F-250.0
F-2.399999999999636
F-2.6804367015246626
F-0.0
F-250.0
F-250.0
tp1227
sbsbsI122
g2
(g22
g23
(lp1228
F0.6536295970176157
aF0.30073466172534546
aF0.05875806061435595
aF0.0008815625846291366
aF0.008987764627758193
aF0.025525845941430023
aF505.2497219502239
atp1229
Rp1230
(dp1231
g28
I122
sg273
g274
(g278
S'\x00\x00\x00\x00\x00\x00\xf8\x7f'
p1232
tp1233
Rp1234
sg29
g2
(g30
g4
Ntp1235
Rp1236
(dp1237
g34
g99
sg36
(F-250.0
F-250.0
F-250.0
F-250.0
F-250.0
F-250.0
F-250.0
F-250.0
F-250.0
F-250.0
F-4.542886766166642
F-250.0
F-250.0
F-250.0
F-250.0
F-3.339440145653008
F-3.3088235294808963
F-11.472040788514711
F-250.0
F-61.458333332811
F-250.0
F-250.0
F-250.0
F-250.0
F-250.0
F-250.0
F-250.0
F-250.0
F-250.0
F-250.0
F-2.399999999999636
F-1.6358098521694457
F-0.0
F-250.0
F-250.0
tp1238
sbsbsI123
g2
(g22
g23
(lp1239
F0.6430516915810617
aF0.08008587629715119
aF0.04829437369478086
aF0.0002675808495806029
aF0.00795712006823849
aF0.02548645106807532
aF489.23068848992204
atp1240
Rp1241
(dp1242
g28
I123
sg273
g274
(g278
S'\x00\x00\x00\x00\x00\x00\xf8\x7f'
p1243
tp1244
Rp1245
sg29
g2
(g30
g4
Ntp1246
Rp1247
(dp1248
g34
g99
sg36
(F-250.0
F-250.0
F-250.0
F-250.0
F-250.0
F-250.0
F-250.0
F-250.0
F-250.0
F-250.0
F-1.077227221906467
F-250.0
F-250.0
F-250.0
F-250.0
F-2.9980655439232993
F-2.205882353010057
F-11.377685455782746
F-250.0
F-70.71759259195008
F-250.0
F-250.0
F-250.0
F-250.0
F-250.0
F-250.0
F-250.0
F-250.0
F-250.0
F-250.0
F-1.5999999999994543
F-2.144573531287456
F-0.0
F-250.0
F-250.0
tp1249
sbsbsI124
g2
(g22
g23
(lp1250
F0.23980366320988922
aF0.2707407125121987
aF0.0782205396130375
aF0.00023735498830575728
aF0.002234906162460554
aF0.02357199196143431
aF319.7622331219334
atp1251
Rp1252
(dp1253
g28
I124
sg273
g274
(g278
S'\x00\x00\x00\x00\x00\x00\xf8\x7f'
p1254
tp1255
Rp1256
sg29
g2
(g30
g4
Ntp1257
Rp1258
(dp1259
g34
g45
sg36
(F-250.0
F-250.0
F-250.0
F-250.0
F-250.0
F-250.0
F-250.0
F-250.0
F-250.0
F-250.0
F-250.0
F-250.0
F-250.0
F-250.0
F-250.0
F-250.0
F-250.0
F-250.0
F-250.0
F-250.0
F-250.0
F-250.0
F-250.0
F-250.0
F-250.0
F-250.0
F-250.0
F-250.0
F-250.0
F-250.0
F-2.1999999999995907
F-2.8351831886465986
F-0.0
F-250.0
F-250.0
tp1260
sbsbsI125
g2
(g22
g23
(lp1261
F0.7718070240122232
aF0.29741322260046094
aF0.05471025021858758
aF0.0008007973177998914
aF0.008268454435439082
aF0.027907316812447826
aF655.6152960475919
atp1262
Rp1263
(dp1264
g28
I125
sg273
g274
(g278
S'\x00\x00\x00\x00\x00\x00\xf8\x7f'
p1265
tp1266
Rp1267
sg29
g2
(g30
g4
Ntp1268
Rp1269
(dp1270
g34
g99
sg36
(F-250.0
F-250.0
F-250.0
F-250.0
F-250.0
F-250.0
F-250.0
F-250.0
F-250.0
F-250.0
F-1.5005250670858985
F-250.0
F-250.0
F-250.0
F-250.0
F-3.339440145653008
F-2.647058823598393
F-11.439790651994237
F-250.0
F-66.77748226891369
F-250.0
F-250.0
F-250.0
F-250.0
F-250.0
F-250.0
F-250.0
F-250.0
F-250.0
F-250.0
F-2.1999999999995907
F-2.167626861530876
F-0.0
F-250.0
F-250.0
tp1271
sbsbsI126
g2
(g22
g23
(lp1272
F0.670305566414071
aF0.3033685109329176
aF0.059267109063657786
aF0.0008183626133588005
aF0.007965826377224821
aF0.025498046867734665
aF597.2222128229007
atp1273
Rp1274
(dp1275
g28
I126
sg273
g274
(g278
S'\x00\x00\x00\x00\x00\x00\xf8\x7f'
p1276
tp1277
Rp1278
sg29
g2
(g30
g4
Ntp1279
Rp1280
(dp1281
g34
g99
sg36
(F-250.0
F-250.0
F-250.0
F-250.0
F-250.0
F-250.0
F-250.0
F-250.0
F-250.0
F-250.0
F-3.315165216153217
F-250.0
F-250.0
F-250.0
F-250.0
F-3.225648611743105
F-3.0882352941867284
F-11.475786466869392
F-250.0
F-63.15901360489871
F-250.0
F-250.0
F-250.0
F-250.0
F-250.0
F-250.0
F-250.0
F-250.0
F-250.0
F-250.0
F-2.399999999999636
F-1.6628317780975905
F-0.0
F-250.0
F-250.0
tp1282
sbsbsI127
g2
(g22
g23
(lp1283
F0.08158008455512855
aF0.4435122001607863
aF0.009028788586820963
aF0.00038741943680344515
aF0.004921777562807408
aF0.02714366288788459
aF105.20284370819755
atp1284
Rp1285
(dp1286
g28
I127
sg273
g274
(g278
S'\x00\x00\x00\x00\x00\x00\xf8\x7f'
p1287
tp1288
Rp1289
sg29
g2
(g30
g4
Ntp1290
Rp1291
(dp1292
g34
g35
sg36
(F-250.0
F-250.0
F-250.0
F-250.0
F-250.0
F-250.0
F-250.0
F-250.0
F-250.0
F-250.0
F-250.0
F-250.0
F-250.0
F-250.0
F-250.0
F-250.0
F-250.0
F-250.0
F-250.0
F-250.0
F-250.0
F-250.0
F-250.0
F-250.0
F-250.0
F-250.0
F-250.0
F-250.0
F-250.0
F-250.0
F-250.0
F-250.0
F-100.0
F-250.0
F-250.0
tp1293
sbsbsI128
g2
(g22
g23
(lp1294
F0.7226753576986541
aF0.5778124567741862
aF0.058580323205571
aF0.0003527858823448799
aF0.00795712006823849
aF0.025426455687671656
aF608.8963909139643
atp1295
Rp1296
(dp1297
g28
I128
sg273
g274
(g278
S'\x00\x00\x00\x00\x00\x00\xf8\x7f'
p1298
tp1299
Rp1300
sg29
g2
(g30
g4
Ntp1301
Rp1302
(dp1303
g34
g99
sg36
(F-250.0
F-250.0
F-250.0
F-250.0
F-250.0
F-250.0
F-250.0
F-250.0
F-250.0
F-250.0
F-250.0
F-250.0
F-250.0
F-250.0
F-250.0
F-250.0
F-250.0
F-250.0
F-250.0
F-250.0
F-250.0
F-250.0
F-250.0
F-250.0
F-250.0
F-250.0
F-250.0
F-250.0
F-250.0
F-250.0
F-2.5999999999996817
F-0.4551393663171723
F-0.0
F-250.0
F-250.0
tp1304
sbsbsI129
g2
(g22
g23
(lp1305
F0.04861626213813433
aF0.7540065326574457
aF0.014325507548037884
aF0.0006123341577502192
aF0.006559745264121203
aF0.027138154023730342
aF154.39651155219795
atp1306
Rp1307
(dp1308
g28
I129
sg273
g274
(g278
S'\x00\x00\x00\x00\x00\x00\xf8\x7f'
p1309
tp1310
Rp1311
sg29
g2
(g30
g4
Ntp1312
Rp1313
(dp1314
g34
g35
sg36
(F-250.0
F-250.0
F-250.0
F-250.0
F-250.0
F-250.0
F-250.0
F-250.0
F-250.0
F-250.0
F-250.0
F-250.0
F-250.0
F-250.0
F-250.0
F-250.0
F-250.0
F-250.0
F-250.0
F-250.0
F-250.0
F-250.0
F-250.0
F-250.0
F-250.0
F-250.0
F-250.0
F-250.0
F-250.0
F-250.0
F-250.0
F-250.0
F-100.0
F-250.0
F-250.0
tp1315
sbsbsI130
g2
(g22
g23
(lp1316
F0.4243286029187696
aF0.9932432316108444
aF0.03737311918373299
aF0.00021659939713061338
aF0.009359185114377803
aF0.001540542809310357
aF274.6718889967158
atp1317
Rp1318
(dp1319
g28
I130
sg273
g274
(g278
S'\x00\x00\x00\x00\x00\x00\xf8\x7f'
p1320
tp1321
Rp1322
sg29
g2
(g30
g4
Ntp1323
Rp1324
(dp1325
g34
g63
sg36
(F-250.0
F-250.0
F-250.0
F-250.0
F-250.0
F-250.0
F-250.0
F-250.0
F-250.0
F-250.0
F-250.0
F-250.0
F-250.0
F-250.0
F-250.0
F-250.0
F-250.0
F-250.0
F-250.0
F-250.0
F-250.0
F-250.0
F-250.0
F-250.0
F-250.0
F-250.0
F-250.0
F-250.0
F-250.0
F-250.0
F-2.799999999999727
F-1.954172860675617
F-0.0
F-250.0
F-250.0
tp1326
sbsbsI131
g2
(g22
g23
(lp1327
F0.9920331419682608
aF0.370419340129366
aF0.07268272446124224
aF0.000917999439581282
aF0.0071367070174700896
aF0.030387676959690496
aF859.1504478993284
atp1328
Rp1329
(dp1330
g28
I131
sg273
g274
(g278
S'\x00\x00\x00\x00\x00\x00\xf8\x7f'
p1331
tp1332
Rp1333
sg29
g2
(g30
g4
Ntp1334
Rp1335
(dp1336
g34
g45
sg36
g1227
sbsbsI132
g2
(g22
g23
(lp1337
F0.09469324322811667
aF0.7631242528494413
aF0.00022802949317822507
aF0.0006123341577502192
aF0.006559745264121203
aF0.01938759485401076
aF105.20284370819755
atp1338
Rp1339
(dp1340
g28
I132
sg273
g274
(g278
S'\x00\x00\x00\x00\x00\x00\xf8\x7f'
p1341
tp1342
Rp1343
sg29
g2
(g30
g4
Ntp1344
Rp1345
(dp1346
g34
g35
sg36
g1017
sbsbsI133
g2
(g22
g23
(lp1347
F0.7226753576986541
aF0.3033685109329176
aF0.058580323205571
aF0.0002675808495806029
aF0.00795712006823849
aF0.025511549118690222
aF505.23096032918573
atp1348
Rp1349
(dp1350
g28
I133
sg273
g274
(g278
S'\x00\x00\x00\x00\x00\x00\xf8\x7f'
p1351
tp1352
Rp1353
sg29
g2
(g30
g4
Ntp1354
Rp1355
(dp1356
g34
g99
sg36
g1083
sbsbsI134
g2
(g22
g23
(lp1357
F0.6576452054853332
aF0.29741322260046094
aF0.054495569869355984
aF0.0008824790008318577
aF0.008268454435439082
aF0.02421657693270656
aF597.2222128229007
atp1358
Rp1359
(dp1360
g28
I134
sg273
g274
(g278
S'\x00\x00\x00\x00\x00\x00\xf8\x7f'
p1361
tp1362
Rp1363
sg29
g2
(g30
g4
Ntp1364
Rp1365
(dp1366
g34
g99
sg36
g1072
sbsbsI135
g2
(g22
g23
(lp1367
F0.04861626213813433
aF0.7540065326574457
aF0.014325507548037884
aF0.0006123341577502192
aF0.006559745264121203
aF0.027138154023730342
aF154.39651155219795
atp1368
Rp1369
(dp1370
g28
I135
sg273
g274
(g278
S'\x00\x00\x00\x00\x00\x00\xf8\x7f'
p1371
tp1372
Rp1373
sg29
g2
(g30
g4
Ntp1374
Rp1375
(dp1376
g34
g35
sg36
g1315
sbsbsI136
g2
(g22
g23
(lp1377
F0.09469324322811667
aF0.7631242528494413
aF0.00022802949317822507
aF0.0006123341577502192
aF0.006559745264121203
aF0.01938759485401076
aF105.20284370819755
atp1378
Rp1379
(dp1380
g28
I136
sg273
g274
(g278
S'\x00\x00\x00\x00\x00\x00\xf8\x7f'
p1381
tp1382
Rp1383
sg29
g2
(g30
g4
Ntp1384
Rp1385
(dp1386
g34
g35
sg36
g1017
sbsbsI137
g2
(g22
g23
(lp1387
F0.34563546864196726
aF0.0787877536906667
aF0.07882461450337573
aF0.00035049329108431356
aF0.003024677236316873
aF0.02354689391081941
aF303.7619597577892
atp1388
Rp1389
(dp1390
g28
I137
sg273
g274
(g278
S'\x00\x00\x00\x00\x00\x00\xf8\x7f'
p1391
tp1392
Rp1393
sg29
g2
(g30
g4
Ntp1394
Rp1395
(dp1396
g34
g45
sg36
g807
sbsbsI138
g2
(g22
g23
(lp1397
F0.7226753576986541
aF0.3033685109329176
aF0.058580323205571
aF0.0002675808495806029
aF0.00795712006823849
aF0.025511549118690222
aF505.23096032918573
atp1398
Rp1399
(dp1400
g28
I138
sg273
g274
(g278
S'\x00\x00\x00\x00\x00\x00\xf8\x7f'
p1401
tp1402
Rp1403
sg29
g2
(g30
g4
Ntp1404
Rp1405
(dp1406
g34
g99
sg36
g1083
sbsbsI139
g2
(g22
g23
(lp1407
F0.670305566414071
aF0.3033685109329176
aF0.05875806061435595
aF0.0008824790008318577
aF0.008461974184283128
aF0.025511549118690222
aF597.2222128229007
atp1408
Rp1409
(dp1410
g28
I139
sg273
g274
(g278
S'\x00\x00\x00\x00\x00\x00\xf8\x7f'
p1411
tp1412
Rp1413
sg29
g2
(g30
g4
Ntp1414
Rp1415
(dp1416
g34
g99
sg36
g100
sbsbsI140
g2
(g22
g23
(lp1417
F0.34563546864196726
aF0.0787877536906667
aF0.07882461450337573
aF0.00035049329108431356
aF0.003024677236316873
aF0.02354689391081941
aF303.7619597577892
atp1418
Rp1419
(dp1420
g28
I140
sg273
g274
(g278
S'\x00\x00\x00\x00\x00\x00\xf8\x7f'
p1421
tp1422
Rp1423
sg29
g2
(g30
g4
Ntp1424
Rp1425
(dp1426
g34
g45
sg36
g807
sbsbsI141
g2
(g22
g23
(lp1427
F0.9414326827732966
aF0.370419340129366
aF0.06512256250921462
aF0.0005360326664200276
aF0.0071367070174700896
aF0.03615650164761391
aF915.4760934881867
atp1428
Rp1429
(dp1430
g28
I141
sg273
g274
(g278
S'\x00\x00\x00\x00\x00\x00\xf8\x7f'
p1431
tp1432
Rp1433
sg29
g2
(g30
g4
Ntp1434
Rp1435
(dp1436
g34
g45
sg36
(F-250.0
F-250.0
F-250.0
F-250.0
F-250.0
F-250.0
F-250.0
F-250.0
F-250.0
F-250.0
F-0.369040628680514
F-250.0
F-250.0
F-250.0
F-250.0
F-3.339440145653008
F-2.5000000000689475
F-11.514746857845509
F-250.0
F-68.05305755335017
F-250.0
F-250.0
F-250.0
F-250.0
F-250.0
F-250.0
F-250.0
F-250.0
F-250.0
F-250.0
F-2.399999999999636
F-2.1370073636705342
F-0.0
F-250.0
F-250.0
tp1437
sbsbsI142
g2
(g22
g23
(lp1438
F0.06940657716055709
aF0.7631242528494413
aF0.00022802949317822507
aF0.0009697071149057702
aF0.0071537688405685865
aF0.017370781884256448
aF59.614657306623144
atp1439
Rp1440
(dp1441
g28
I142
sg273
g274
(g278
S'\x00\x00\x00\x00\x00\x00\xf8\x7f'
p1442
tp1443
Rp1444
sg29
g2
(g30
g4
Ntp1445
Rp1446
(dp1447
g34
g35
sg36
(F-250.0
F-250.0
F-250.0
F-250.0
F-250.0
F-250.0
F-250.0
F-250.0
F-250.0
F-250.0
F-250.0
F-250.0
F-250.0
F-250.0
F-250.0
F-250.0
F-250.0
F-250.0
F-250.0
F-250.0
F-250.0
F-250.0
F-250.0
F-250.0
F-250.0
F-250.0
F-250.0
F-250.0
F-250.0
F-250.0
F-250.0
F-250.0
F-100.0
F-250.0
F-250.0
tp1448
sbsbsI143
g2
(g22
g23
(lp1449
F0.7396598679324723
aF0.3033685109329176
aF0.05452474077906619
aF0.0005327524781431346
aF0.006704816014656746
aF0.02498428255681783
aF450.8157418804012
atp1450
Rp1451
(dp1452
g28
I143
sg273
g274
(g278
S'\x00\x00\x00\x00\x00\x00\xf8\x7f'
p1453
tp1454
Rp1455
sg29
g2
(g30
g4
Ntp1456
Rp1457
(dp1458
g34
g99
sg36
(F-250.0
F-250.0
F-250.0
F-250.0
F-250.0
F-250.0
F-250.0
F-250.0
F-250.0
F-250.0
F-2.2503247539651547
F-250.0
F-250.0
F-250.0
F-250.0
F-3.225648611743105
F-2.8676470588925604
F-11.438150341371912
F-250.0
F-64.93055555498962
F-250.0
F-250.0
F-250.0
F-250.0
F-250.0
F-250.0
F-250.0
F-250.0
F-250.0
F-250.0
F-2.399999999999636
F-1.4718811388839996
F-0.0
F-250.0
F-250.0
tp1459
sbsbsI144
g2
(g22
g23
(lp1460
F0.8588932552884444
aF0.5101777344503036
aF0.0585511522958608
aF0.0009594398623160306
aF0.009824198795763097
aF0.02262787274490283
aF597.2222128229007
atp1461
Rp1462
(dp1463
g28
I144
sg273
g274
(g278
S'\x00\x00\x00\x00\x00\x00\xf8\x7f'
p1464
tp1465
Rp1466
sg29
g2
(g30
g4
Ntp1467
Rp1468
(dp1469
g34
g99
sg36
(F-250.0
F-250.0
F-250.0
F-250.0
F-250.0
F-250.0
F-250.0
F-250.0
F-250.0
F-250.0
F-3.393351381001064
F-250.0
F-250.0
F-250.0
F-250.0
F-3.453231679562911
F-3.6764705883045092
F-11.470531007830058
F-250.0
F-58.77016128983282
F-250.0
F-250.0
F-250.0
F-250.0
F-250.0
F-250.0
F-250.0
F-250.0
F-250.0
F-250.0
F-2.5999999999996817
F-1.7097740557399717
F-0.0
F-250.0
F-250.0
tp1470
sbsbsI145
g2
(g22
g23
(lp1471
F0.04861626213813433
aF0.8351455705644449
aF0.014851060798530045
aF0.0005636521047553763
aF0.00629301702557249
aF0.0293773177685466
aF60.19649712602105
atp1472
Rp1473
(dp1474
g28
I145
sg273
g274
(g278
S'\x00\x00\x00\x00\x00\x00\xf8\x7f'
p1475
tp1476
Rp1477
sg29
g2
(g30
g4
Ntp1478
Rp1479
(dp1480
g34
g35
sg36
(F-250.0
F-250.0
F-250.0
F-250.0
F-250.0
F-250.0
F-250.0
F-250.0
F-250.0
F-250.0
F-250.0
F-250.0
F-250.0
F-250.0
F-250.0
F-250.0
F-250.0
F-250.0
F-250.0
F-250.0
F-250.0
F-250.0
F-250.0
F-250.0
F-250.0
F-250.0
F-250.0
F-250.0
F-250.0
F-250.0
F-250.0
F-250.0
F-100.0
F-250.0
F-250.0
tp1481
sbsbsI146
g2
(g22
g23
(lp1482
F0.26164090291550113
aF0.7582854324243188
aF9.523982240242074e-06
aF0.0006381617426386655
aF0.006559745264121203
aF0.0187678965368475
aF201.30730340259242
atp1483
Rp1484
(dp1485
g28
I146
sg273
g274
(g278
S'\x00\x00\x00\x00\x00\x00\xf8\x7f'
p1486
tp1487
Rp1488
sg29
g2
(g30
g4
Ntp1489
Rp1490
(dp1491
g34
g35
sg36
(F-250.0
F-250.0
F-250.0
F-250.0
F-250.0
F-250.0
F-250.0
F-250.0
F-250.0
F-250.0
F-250.0
F-250.0
F-250.0
F-250.0
F-250.0
F-250.0
F-250.0
F-250.0
F-250.0
F-250.0
F-250.0
F-250.0
F-250.0
F-250.0
F-250.0
F-250.0
F-250.0
F-250.0
F-250.0
F-250.0
F-2.799999999999727
F-3.8465287501616396
F-0.0
F-250.0
F-250.0
tp1492
sbsbsI147
g2
(g22
g23
(lp1493
F0.32468464931249347
aF0.07880087865701466
aF0.07783226477299576
aF0.00035685466512792397
aF0.0031246398732755797
aF0.02354689391081941
aF303.7619597577892
atp1494
Rp1495
(dp1496
g28
I147
sg273
g274
(g278
S'\x00\x00\x00\x00\x00\x00\xf8\x7f'
p1497
tp1498
Rp1499
sg29
g2
(g30
g4
Ntp1500
Rp1501
(dp1502
g34
g45
sg36
(F-250.0
F-250.0
F-250.0
F-250.0
F-250.0
F-250.0
F-250.0
F-250.0
F-250.0
F-250.0
F-9.653625640080184
F-250.0
F-250.0
F-250.0
F-250.0
F-3.453231679562911
F-4.191176470657568
F-11.578133389109476
F-250.0
F-55.28549382671138
F-250.0
F-250.0
F-250.0
F-250.0
F-250.0
F-250.0
F-250.0
F-250.0
F-250.0
F-250.0
F-1.5999999999994543
F-0.36699993847212226
F-0.0
F-250.0
F-250.0
tp1503
sbsbsI148
g2
(g22
g23
(lp1504
F0.7665168586219983
aF0.30337013168457316
aF0.059572671255792575
aF0.0002560336920400702
aF0.007857032599775934
aF0.025511549118690222
aF505.23096032918573
atp1505
Rp1506
(dp1507
g28
I148
sg273
g274
(g278
S'\x00\x00\x00\x00\x00\x00\xf8\x7f'
p1508
tp1509
Rp1510
sg29
g2
(g30
g4
Ntp1511
Rp1512
(dp1513
g34
g99
sg36
(F-250.0
F-250.0
F-250.0
F-250.0
F-250.0
F-250.0
F-250.0
F-250.0
F-250.0
F-250.0
F-1.9011842923979578
F-250.0
F-250.0
F-250.0
F-250.0
F-3.225648611743105
F-2.794117647127838
F-11.477995709894286
F-250.0
F-65.53758741201366
F-250.0
F-250.0
F-250.0
F-250.0
F-250.0
F-250.0
F-250.0
F-250.0
F-250.0
F-250.0
F-2.1999999999995907
F-2.0071534148516648
F-0.0
F-250.0
F-250.0
tp1514
sbsbsI149
g2
(g22
g23
(lp1515
F0.670305566414071
aF0.09801213395138982
aF0.05451249562184419
aF0.0002738189417778504
aF0.008381694235700106
aF0.025511549118690222
aF307.1541031724416
atp1516
Rp1517
(dp1518
g28
I149
sg273
g274
(g278
S'\x00\x00\x00\x00\x00\x00\xf8\x7f'
p1519
tp1520
Rp1521
sg29
g2
(g30
g4
Ntp1522
Rp1523
(dp1524
g34
g99
sg36
(F-250.0
F-250.0
F-250.0
F-250.0
F-250.0
F-250.0
F-250.0
F-250.0
F-250.0
F-250.0
F-0.9536716916168949
F-250.0
F-250.0
F-250.0
F-250.0
F-2.9980655439232993
F-2.3529411765395025
F-11.43804365469579
F-250.0
F-69.36587591178456
F-250.0
F-250.0
F-250.0
F-250.0
F-250.0
F-250.0
F-250.0
F-250.0
F-250.0
F-250.0
F-1.5999999999994543
F-2.1970549345598087
F-0.0
F-250.0
F-250.0
tp1525
sbsbsI150
g2
(g22
g23
(lp1526
F0.34563546864196726
aF0.28415635310352766
aF0.07882461450337573
aF0.0009394707723165922
aF0.003024677236316873
aF0.02719899590727248
aF643.6737995346394
atp1527
Rp1528
(dp1529
g28
I150
sg273
g274
(g278
S'\x00\x00\x00\x00\x00\x00\xf8\x7f'
p1530
tp1531
Rp1532
sg29
g2
(g30
g4
Ntp1533
Rp1534
(dp1535
g34
g45
sg36
(F-250.0
F-250.0
F-250.0
F-250.0
F-250.0
F-250.0
F-250.0
F-250.0
F-250.0
F-250.0
F-250.0
F-250.0
F-250.0
F-250.0
F-250.0
F-250.0
F-250.0
F-250.0
F-250.0
F-250.0
F-250.0
F-250.0
F-250.0
F-250.0
F-250.0
F-250.0
F-250.0
F-250.0
F-250.0
F-250.0
F-2.399999999999636
F-1.2223646501255536
F-0.0
F-250.0
F-250.0
tp1536
sbsbsI151
g2
(g22
g23
(lp1537
F0.04861626213813433
aF0.8351455705644449
aF0.014851060798530045
aF0.0005636521047553763
aF0.00629301702557249
aF0.0293773177685466
aF60.19649712602105
atp1538
Rp1539
(dp1540
g28
I151
sg273
g274
(g278
S'\x00\x00\x00\x00\x00\x00\xf8\x7f'
p1541
tp1542
Rp1543
sg29
g2
(g30
g4
Ntp1544
Rp1545
(dp1546
g34
g35
sg36
g1481
sbsbsI152
g2
(g22
g23
(lp1547
F0.06940657716055709
aF0.7631242528494413
aF0.00022802949317822507
aF0.0009697071149057702
aF0.0071537688405685865
aF0.017370781884256448
aF59.614657306623144
atp1548
Rp1549
(dp1550
g28
I152
sg273
g274
(g278
S'\x00\x00\x00\x00\x00\x00\xf8\x7f'
p1551
tp1552
Rp1553
sg29
g2
(g30
g4
Ntp1554
Rp1555
(dp1556
g34
g35
sg36
g1448
sbsbsI153
g2
(g22
g23
(lp1557
F0.09469324322811667
aF0.7631242528494413
aF0.00022802949317822507
aF0.0006123341577502192
aF0.006559745264121203
aF0.01938759485401076
aF105.20284370819755
atp1558
Rp1559
(dp1560
g28
I153
sg273
g274
(g278
S'\x00\x00\x00\x00\x00\x00\xf8\x7f'
p1561
tp1562
Rp1563
sg29
g2
(g30
g4
Ntp1564
Rp1565
(dp1566
g34
g35
sg36
g1017
sbsbsI154
g2
(g22
g23
(lp1567
F0.7226753576986541
aF0.3033685109329176
aF0.058580323205571
aF0.0002675808495806029
aF0.00795712006823849
aF0.025511549118690222
aF505.23096032918573
atp1568
Rp1569
(dp1570
g28
I154
sg273
g274
(g278
S'\x00\x00\x00\x00\x00\x00\xf8\x7f'
p1571
tp1572
Rp1573
sg29
g2
(g30
g4
Ntp1574
Rp1575
(dp1576
g34
g99
sg36
g1083
sbsbsI155
g2
(g22
g23
(lp1577
F0.04861626213813433
aF0.7540065326574457
aF0.014325507548037884
aF0.0006123341577502192
aF0.006559745264121203
aF0.027138154023730342
aF154.39651155219795
atp1578
Rp1579
(dp1580
g28
I155
sg273
g274
(g278
S'\x00\x00\x00\x00\x00\x00\xf8\x7f'
p1581
tp1582
Rp1583
sg29
g2
(g30
g4
Ntp1584
Rp1585
(dp1586
g34
g35
sg36
g1315
sbsbsI156
g2
(g22
g23
(lp1587
F0.26164090291550113
aF0.7582854324243188
aF9.523982240242074e-06
aF0.0006381617426386655
aF0.006559745264121203
aF0.0187678965368475
aF201.30730340259242
atp1588
Rp1589
(dp1590
g28
I156
sg273
g274
(g278
S'\x00\x00\x00\x00\x00\x00\xf8\x7f'
p1591
tp1592
Rp1593
sg29
g2
(g30
g4
Ntp1594
Rp1595
(dp1596
g34
g35
sg36
g1492
sbsbsI157
g2
(g22
g23
(lp1597
F0.09469324322811667
aF0.7631242528494413
aF0.00022802949317822507
aF0.0006123341577502192
aF0.006559745264121203
aF0.01938759485401076
aF105.20284370819755
atp1598
Rp1599
(dp1600
g28
I157
sg273
g274
(g278
S'\x00\x00\x00\x00\x00\x00\xf8\x7f'
p1601
tp1602
Rp1603
sg29
g2
(g30
g4
Ntp1604
Rp1605
(dp1606
g34
g35
sg36
g1017
sbsbsI158
g2
(g22
g23
(lp1607
F0.7665168586219983
aF0.30337013168457316
aF0.059572671255792575
aF0.0002560336920400702
aF0.007857032599775934
aF0.025511549118690222
aF505.23096032918573
atp1608
Rp1609
(dp1610
g28
I158
sg273
g274
(g278
S'\x00\x00\x00\x00\x00\x00\xf8\x7f'
p1611
tp1612
Rp1613
sg29
g2
(g30
g4
Ntp1614
Rp1615
(dp1616
g34
g99
sg36
g1514
sbsbsI159
g2
(g22
g23
(lp1617
F0.7396598679324723
aF0.3033685109329176
aF0.05452474077906619
aF0.0005327524781431346
aF0.006704816014656746
aF0.02498428255681783
aF450.8157418804012
atp1618
Rp1619
(dp1620
g28
I159
sg273
g274
(g278
S'\x00\x00\x00\x00\x00\x00\xf8\x7f'
p1621
tp1622
Rp1623
sg29
g2
(g30
g4
Ntp1624
Rp1625
(dp1626
g34
g99
sg36
g1459
sbsbsI160
g2
(g22
g23
(lp1627
F0.7226753576986541
aF0.3033685109329176
aF0.058580323205571
aF0.0002675808495806029
aF0.00795712006823849
aF0.025511549118690222
aF505.23096032918573
atp1628
Rp1629
(dp1630
g28
I160
sg273
g274
(g278
S'\x00\x00\x00\x00\x00\x00\xf8\x7f'
p1631
tp1632
Rp1633
sg29
g2
(g30
g4
Ntp1634
Rp1635
(dp1636
g34
g99
sg36
g1083
sbsbsI161
g2
(g22
g23
(lp1637
F0.10838431328112799
aF0.9646281012555756
aF0.015143610590371972
aF0.000512061755716026
aF0.006141807045407491
aF0.006833157418443881
aF37.71271135030994
atp1638
Rp1639
(dp1640
g28
I161
sg273
g274
(g278
S'\x00\x00\x00\x00\x00\x00\xf8\x7f'
p1641
tp1642
Rp1643
sg29
g2
(g30
g4
Ntp1644
Rp1645
(dp1646
g34
g35
sg36
(F-250.0
F-250.0
F-250.0
F-250.0
F-250.0
F-250.0
F-250.0
F-250.0
F-250.0
F-250.0
F-250.0
F-250.0
F-250.0
F-250.0
F-250.0
F-250.0
F-250.0
F-250.0
F-250.0
F-250.0
F-250.0
F-250.0
F-250.0
F-250.0
F-250.0
F-250.0
F-250.0
F-250.0
F-250.0
F-250.0
F-250.0
F-250.0
F-100.0
F-250.0
F-250.0
tp1647
sbsbsI162
g2
(g22
g23
(lp1648
F0.18737544220990565
aF0.7613609996383177
aF0.0003208929203728393
aF0.0009694811788454317
aF0.007009413459647592
aF0.03411250928099398
aF59.61197275607174
atp1649
Rp1650
(dp1651
g28
I162
sg273
g274
(g278
S'\x00\x00\x00\x00\x00\x00\xf8\x7f'
p1652
tp1653
Rp1654
sg29
g2
(g30
g4
Ntp1655
Rp1656
(dp1657
g34
g35
sg36
(F-250.0
F-250.0
F-250.0
F-250.0
F-250.0
F-250.0
F-250.0
F-250.0
F-250.0
F-250.0
F-250.0
F-250.0
F-250.0
F-250.0
F-250.0
F-250.0
F-250.0
F-250.0
F-250.0
F-250.0
F-250.0
F-250.0
F-250.0
F-250.0
F-250.0
F-250.0
F-250.0
F-250.0
F-250.0
F-250.0
F-2.799999999999727
F-5.802518550332982
F-0.0
F-250.0
F-250.0
tp1658
sbsbsI163
g2
(g22
g23
(lp1659
F0.676353548479786
aF0.6018782094048184
aF0.00022802949317822507
aF0.0006123341577502192
aF0.006559745264121203
aF0.01938759485401076
aF499.96055164000336
atp1660
Rp1661
(dp1662
g28
I163
sg273
g274
(g278
S'\x00\x00\x00\x00\x00\x00\xf8\x7f'
p1663
tp1664
Rp1665
sg29
g2
(g30
g4
Ntp1666
Rp1667
(dp1668
g34
g35
sg36
(F-250.0
F-250.0
F-250.0
F-250.0
F-250.0
F-250.0
F-250.0
F-250.0
F-250.0
F-250.0
F-8.520139717768558
F-13.424367398777852
F-2.1127621875379523
F-2.330917874395416
F-4.835516194639372
F-3.3352566333775506
F-4.55882352948118
F-2.9776200139646996
F-3.4346234471443595
F-63.444949811852176
F-250.0
F-250.0
F-250.0
F-250.0
F-250.0
F-250.0
F-250.0
F-250.0
F-250.0
F-250.0
F-2.5999999999996817
F-0.47714266271850647
F-0.0
F-250.0
F-250.0
tp1669
sbsbsI164
g2
(g22
g23
(lp1670
F0.13500412568857872
aF0.28284046435738386
aF0.032170884851545165
aF0.00017833992734189052
aF0.00795712006823849
aF0.025511549118690222
aF110.65262399673074
atp1671
Rp1672
(dp1673
g28
I164
sg273
g274
(g278
S'\x00\x00\x00\x00\x00\x00\xf8\x7f'
p1674
tp1675
Rp1676
sg29
g2
(g30
g4
Ntp1677
Rp1678
(dp1679
g34
g99
sg36
(F-250.0
F-250.0
F-250.0
F-250.0
F-250.0
F-250.0
F-250.0
F-250.0
F-250.0
F-250.0
F-250.0
F-250.0
F-250.0
F-250.0
F-250.0
F-250.0
F-250.0
F-250.0
F-250.0
F-250.0
F-250.0
F-250.0
F-250.0
F-250.0
F-250.0
F-250.0
F-250.0
F-250.0
F-250.0
F-250.0
F-2.1999999999995907
F-5.839663547916205
F-0.0
F-250.0
F-250.0
tp1680
sbsbsI165
g2
(g22
g23
(lp1681
F0.07497585194224801
aF0.600246352499805
aF5.247794823392063e-05
aF0.0006638330135863941
aF0.0076099633123913
aF0.026447263192066108
aF161.57899090118815
atp1682
Rp1683
(dp1684
g28
I165
sg273
g274
(g278
S'\x00\x00\x00\x00\x00\x00\xf8\x7f'
p1685
tp1686
Rp1687
sg29
g2
(g30
g4
Ntp1688
Rp1689
(dp1690
g34
g35
sg36
(F-250.0
F-250.0
F-250.0
F-250.0
F-250.0
F-250.0
F-250.0
F-250.0
F-250.0
F-250.0
F-250.0
F-250.0
F-250.0
F-250.0
F-250.0
F-250.0
F-250.0
F-250.0
F-250.0
F-250.0
F-250.0
F-250.0
F-250.0
F-250.0
F-250.0
F-250.0
F-250.0
F-250.0
F-250.0
F-250.0
F-250.0
F-250.0
F-100.0
F-250.0
F-250.0
tp1691
sbsbsI166
g2
(g22
g23
(lp1692
F0.26164090291550113
aF0.7582854324243188
aF0.01564795418556192
aF0.000531477498626705
aF0.006559745264121203
aF0.0187678965368475
aF194.1248240541789
atp1693
Rp1694
(dp1695
g28
I166
sg273
g274
(g278
S'\x00\x00\x00\x00\x00\x00\xf8\x7f'
p1696
tp1697
Rp1698
sg29
g2
(g30
g4
Ntp1699
Rp1700
(dp1701
g34
g35
sg36
(F-250.0
F-250.0
F-250.0
F-250.0
F-250.0
F-250.0
F-250.0
F-250.0
F-250.0
F-250.0
F-250.0
F-250.0
F-250.0
F-250.0
F-250.0
F-250.0
F-250.0
F-250.0
F-250.0
F-250.0
F-250.0
F-250.0
F-250.0
F-250.0
F-250.0
F-250.0
F-250.0
F-250.0
F-250.0
F-250.0
F-2.799999999999727
F-4.173554347817317
F-0.0
F-250.0
F-250.0
tp1702
sbsbsI167
g2
(g22
g23
(lp1703
F0.8638511136431515
aF0.3141127289268628
aF0.057588292013193265
aF0.0006123341577502192
aF0.007863985078492427
aF0.02545463523079346
aF99.46517336971544
atp1704
Rp1705
(dp1706
g28
I167
sg273
g274
(g278
S'\x00\x00\x00\x00\x00\x00\xf8\x7f'
p1707
tp1708
Rp1709
sg29
g2
(g30
g4
Ntp1710
Rp1711
(dp1712
g34
g35
sg36
(F-250.0
F-250.0
F-250.0
F-250.0
F-250.0
F-250.0
F-250.0
F-250.0
F-250.0
F-250.0
F-1.1802057569951592
F-250.0
F-250.0
F-250.0
F-250.0
F-3.225648611743105
F-2.794117647127838
F-11.462658011858025
F-250.0
F-65.53758741201366
F-250.0
F-250.0
F-250.0
F-250.0
F-250.0
F-250.0
F-250.0
F-250.0
F-250.0
F-250.0
F-2.399999999999636
F-2.061694419103253
F-0.0
F-250.0
F-250.0
tp1713
sbsbsI168
g2
(g22
g23
(lp1714
F0.38541721291959596
aF0.6981829547089224
aF0.0037189877316166804
aF0.0002560336920400702
aF0.005931704591972153
aF0.019444508741956336
aF492.2745394242499
atp1715
Rp1716
(dp1717
g28
I168
sg273
g274
(g278
S'\x00\x00\x00\x00\x00\x00\xf8\x7f'
p1718
tp1719
Rp1720
sg29
g2
(g30
g4
Ntp1721
Rp1722
(dp1723
g34
g99
sg36
(F-250.0
F-250.0
F-250.0
F-250.0
F-250.0
F-250.0
F-250.0
F-250.0
F-250.0
F-250.0
F-250.0
F-250.0
F-250.0
F-250.0
F-250.0
F-250.0
F-250.0
F-250.0
F-250.0
F-250.0
F-250.0
F-250.0
F-250.0
F-250.0
F-250.0
F-250.0
F-250.0
F-250.0
F-250.0
F-250.0
F-2.799999999999727
F-2.102526949613072
F-0.0
F-250.0
F-250.0
tp1724
sbsbsI169
g2
(g22
g23
(lp1725
F0.8999437282179915
aF0.3033685109329176
aF0.04069186051736863
aF0.0005193862933067029
aF0.007926160048257117
aF0.02157793151413876
aF450.46282620412524
atp1726
Rp1727
(dp1728
g28
I169
sg273
g274
(g278
S'\x00\x00\x00\x00\x00\x00\xf8\x7f'
p1729
tp1730
Rp1731
sg29
g2
(g30
g4
Ntp1732
Rp1733
(dp1734
g34
g99
sg36
(F-250.0
F-250.0
F-250.0
F-250.0
F-250.0
F-250.0
F-250.0
F-250.0
F-250.0
F-250.0
F-0.04443553092411981
F-250.0
F-250.0
F-250.0
F-250.0
F-3.111857077833202
F-2.2794117647747796
F-11.279233379814396
F-250.0
F-70.0367647052491
F-250.0
F-250.0
F-250.0
F-250.0
F-250.0
F-250.0
F-250.0
F-250.0
F-250.0
F-250.0
F-2.1999999999995907
F-2.166769115986773
F-0.0
F-250.0
F-250.0
tp1735
sbsbsI170
g2
(g22
g23
(lp1736
F0.7212848180403857
aF0.3033685109329176
aF0.058580323205571
aF0.00036985391436616336
aF0.006735776031433221
aF0.025624835446594503
aF494.8014973985108
atp1737
Rp1738
(dp1739
g28
I170
sg273
g274
(g278
S'\x00\x00\x00\x00\x00\x00\xf8\x7f'
p1740
tp1741
Rp1742
sg29
g2
(g30
g4
Ntp1743
Rp1744
(dp1745
g34
g99
sg36
(F-250.0
F-250.0
F-250.0
F-250.0
F-250.0
F-250.0
F-250.0
F-250.0
F-250.0
F-250.0
F-2.53553703743877
F-250.0
F-250.0
F-250.0
F-250.0
F-3.225648611743105
F-2.941176470657283
F-11.470680546229385
F-250.0
F-64.33189655116583
F-250.0
F-250.0
F-250.0
F-250.0
F-250.0
F-250.0
F-250.0
F-250.0
F-250.0
F-250.0
F-2.399999999999636
F-1.5672328985515391
F-0.0
F-250.0
F-250.0
tp1746
sbsbsI171
g2
(g22
g23
(lp1747
F0.06940657716055709
aF0.7631242528494413
aF0.00022802949317822507
aF0.0009697071149057702
aF0.0071537688405685865
aF0.017370781884256448
aF59.614657306623144
atp1748
Rp1749
(dp1750
g28
I171
sg273
g274
(g278
S'\x00\x00\x00\x00\x00\x00\xf8\x7f'
p1751
tp1752
Rp1753
sg29
g2
(g30
g4
Ntp1754
Rp1755
(dp1756
g34
g35
sg36
g1448
sbsbsI172
g2
(g22
g23
(lp1757
F0.04861626213813433
aF0.7540065326574457
aF0.014325507548037884
aF0.0006123341577502192
aF0.006559745264121203
aF0.027138154023730342
aF154.39651155219795
atp1758
Rp1759
(dp1760
g28
I172
sg273
g274
(g278
S'\x00\x00\x00\x00\x00\x00\xf8\x7f'
p1761
tp1762
Rp1763
sg29
g2
(g30
g4
Ntp1764
Rp1765
(dp1766
g34
g35
sg36
g1315
sbsbsI173
g2
(g22
g23
(lp1767
F0.7665168586219983
aF0.30337013168457316
aF0.059572671255792575
aF0.0002560336920400702
aF0.007857032599775934
aF0.025511549118690222
aF505.23096032918573
atp1768
Rp1769
(dp1770
g28
I173
sg273
g274
(g278
S'\x00\x00\x00\x00\x00\x00\xf8\x7f'
p1771
tp1772
Rp1773
sg29
g2
(g30
g4
Ntp1774
Rp1775
(dp1776
g34
g99
sg36
g1514
sbsbsI174
g2
(g22
g23
(lp1777
F0.06940657716055709
aF0.7631242528494413
aF0.00022802949317822507
aF0.0009697071149057702
aF0.0071537688405685865
aF0.017370781884256448
aF59.614657306623144
atp1778
Rp1779
(dp1780
g28
I174
sg273
g274
(g278
S'\x00\x00\x00\x00\x00\x00\xf8\x7f'
p1781
tp1782
Rp1783
sg29
g2
(g30
g4
Ntp1784
Rp1785
(dp1786
g34
g35
sg36
g1448
sbsbsI175
g2
(g22
g23
(lp1787
F0.18737544220990565
aF0.7613609996383177
aF0.0003208929203728393
aF0.0009694811788454317
aF0.007009413459647592
aF0.03411250928099398
aF59.61197275607174
atp1788
Rp1789
(dp1790
g28
I175
sg273
g274
(g278
S'\x00\x00\x00\x00\x00\x00\xf8\x7f'
p1791
tp1792
Rp1793
sg29
g2
(g30
g4
Ntp1794
Rp1795
(dp1796
g34
g35
sg36
g1658
sbsbsI176
g2
(g22
g23
(lp1797
F0.04861626213813433
aF0.8351455705644449
aF0.014851060798530045
aF0.0005636521047553763
aF0.00629301702557249
aF0.0293773177685466
aF60.19649712602105
atp1798
Rp1799
(dp1800
g28
I176
sg273
g274
(g278
S'\x00\x00\x00\x00\x00\x00\xf8\x7f'
p1801
tp1802
Rp1803
sg29
g2
(g30
g4
Ntp1804
Rp1805
(dp1806
g34
g35
sg36
g1481
sbsbsI177
g2
(g22
g23
(lp1807
F0.06940657716055709
aF0.7631242528494413
aF0.00022802949317822507
aF0.0009697071149057702
aF0.0071537688405685865
aF0.017370781884256448
aF59.614657306623144
atp1808
Rp1809
(dp1810
g28
I177
sg273
g274
(g278
S'\x00\x00\x00\x00\x00\x00\xf8\x7f'
p1811
tp1812
Rp1813
sg29
g2
(g30
g4
Ntp1814
Rp1815
(dp1816
g34
g35
sg36
g1448
sbsbsI178
g2
(g22
g23
(lp1817
F0.06940657716055709
aF0.7631242528494413
aF0.00022802949317822507
aF0.0009697071149057702
aF0.0071537688405685865
aF0.017370781884256448
aF59.614657306623144
atp1818
Rp1819
(dp1820
g28
I178
sg273
g274
(g278
S'\x00\x00\x00\x00\x00\x00\xf8\x7f'
p1821
tp1822
Rp1823
sg29
g2
(g30
g4
Ntp1824
Rp1825
(dp1826
g34
g35
sg36
g1448
sbsbsI179
g2
(g22
g23
(lp1827
F0.7212848180403857
aF0.3033685109329176
aF0.058580323205571
aF0.00036985391436616336
aF0.006735776031433221
aF0.025624835446594503
aF494.8014973985108
atp1828
Rp1829
(dp1830
g28
I179
sg273
g274
(g278
S'\x00\x00\x00\x00\x00\x00\xf8\x7f'
p1831
tp1832
Rp1833
sg29
g2
(g30
g4
Ntp1834
Rp1835
(dp1836
g34
g99
sg36
g1746
sbsbsI180
g2
(g22
g23
(lp1837
F0.7226753576986541
aF0.3033685109329176
aF0.058580323205571
aF0.0002675808495806029
aF0.00795712006823849
aF0.025511549118690222
aF505.23096032918573
atp1838
Rp1839
(dp1840
g28
I180
sg273
g274
(g278
S'\x00\x00\x00\x00\x00\x00\xf8\x7f'
p1841
tp1842
Rp1843
sg29
g2
(g30
g4
Ntp1844
Rp1845
(dp1846
g34
g99
sg36
g1083
sbsbsI181
g2
(g22
g23
(lp1847
F0.06940657716055709
aF0.7627203811898534
aF0.014923123276546723
aF0.0005460351810412152
aF0.007162290657077382
aF0.02970487874476681
aF58.00505024189063
atp1848
Rp1849
(dp1850
g28
I181
sg273
g274
(g278
S'\x00\x00\x00\x00\x00\x00\xf8\x7f'
p1851
tp1852
Rp1853
sg29
g2
(g30
g4
Ntp1854
Rp1855
(dp1856
g34
g35
sg36
(F-250.0
F-250.0
F-250.0
F-250.0
F-250.0
F-250.0
F-250.0
F-250.0
F-250.0
F-250.0
F-250.0
F-250.0
F-250.0
F-250.0
F-250.0
F-250.0
F-250.0
F-250.0
F-250.0
F-250.0
F-250.0
F-250.0
F-250.0
F-250.0
F-250.0
F-250.0
F-250.0
F-250.0
F-250.0
F-250.0
F-250.0
F-250.0
F-100.0
F-250.0
F-250.0
tp1857
sbsbsI182
g2
(g22
g23
(lp1858
F0.04861626213813433
aF0.6973757924375997
aF0.00017392316927012774
aF0.0008793147834109882
aF0.006551223447612279
aF0.016435699760253178
aF166.21726131128824
atp1859
Rp1860
(dp1861
g28
I182
sg273
g274
(g278
S'\x00\x00\x00\x00\x00\x00\xf8\x7f'
p1862
tp1863
Rp1864
sg29
g2
(g30
g4
Ntp1865
Rp1866
(dp1867
g34
g35
sg36
(F-250.0
F-250.0
F-250.0
F-250.0
F-250.0
F-250.0
F-250.0
F-250.0
F-250.0
F-250.0
F-250.0
F-250.0
F-250.0
F-250.0
F-250.0
F-250.0
F-250.0
F-250.0
F-250.0
F-250.0
F-250.0
F-250.0
F-250.0
F-250.0
F-250.0
F-250.0
F-250.0
F-250.0
F-250.0
F-250.0
F-250.0
F-250.0
F-100.0
F-250.0
F-250.0
tp1868
sbsbsI183
g2
(g22
g23
(lp1869
F0.7759146979984123
aF0.32698970982664877
aF0.05863865179843361
aF0.0002560336920400702
aF0.007857032599775934
aF0.02050545725100424
aF316.641489949522
atp1870
Rp1871
(dp1872
g28
I183
sg273
g274
(g278
S'\x00\x00\x00\x00\x00\x00\xf8\x7f'
p1873
tp1874
Rp1875
sg29
g2
(g30
g4
Ntp1876
Rp1877
(dp1878
g34
g99
sg36
(F-250.0
F-250.0
F-250.0
F-250.0
F-250.0
F-250.0
F-250.0
F-250.0
F-250.0
F-250.0
F-1.9270936216884589
F-250.0
F-250.0
F-250.0
F-250.0
F-3.111857077833202
F-2.941176470657283
F-11.471037006557781
F-250.0
F-64.33189655116583
F-250.0
F-250.0
F-250.0
F-250.0
F-250.0
F-250.0
F-250.0
F-250.0
F-250.0
F-250.0
F-2.399999999999636
F-1.554431402766798
F-0.0
F-250.0
F-250.0
tp1879
sbsbsI184
g2
(g22
g23
(lp1880
F0.10250654202757714
aF0.7631242528494413
aF0.0027257809847338298
aF0.000987675296461968
aF0.00807296273980482
aF0.01994311927692663
aF480.65394192547984
atp1881
Rp1882
(dp1883
g28
I184
sg273
g274
(g278
S'\x00\x00\x00\x00\x00\x00\xf8\x7f'
p1884
tp1885
Rp1886
sg29
g2
(g30
g4
Ntp1887
Rp1888
(dp1889
g34
g35
sg36
(F-250.0
F-250.0
F-250.0
F-250.0
F-250.0
F-250.0
F-250.0
F-250.0
F-250.0
F-250.0
F-250.0
F-250.0
F-250.0
F-250.0
F-250.0
F-250.0
F-250.0
F-250.0
F-250.0
F-250.0
F-250.0
F-250.0
F-250.0
F-250.0
F-250.0
F-250.0
F-250.0
F-250.0
F-250.0
F-250.0
F-250.0
F-250.0
F-100.0
F-250.0
F-250.0
tp1890
sbsbsI185
g2
(g22
g23
(lp1891
F0.18262468636720786
aF0.7613609996383177
aF0.0002183623191066202
aF0.0009694811788454317
aF0.006785469340947328
aF0.03411250928099398
aF59.61197275607174
atp1892
Rp1893
(dp1894
g28
I185
sg273
g274
(g278
S'\x00\x00\x00\x00\x00\x00\xf8\x7f'
p1895
tp1896
Rp1897
sg29
g2
(g30
g4
Ntp1898
Rp1899
(dp1900
g34
g35
sg36
(F-250.0
F-250.0
F-250.0
F-250.0
F-250.0
F-250.0
F-250.0
F-250.0
F-250.0
F-250.0
F-250.0
F-250.0
F-250.0
F-250.0
F-250.0
F-250.0
F-250.0
F-250.0
F-250.0
F-250.0
F-250.0
F-250.0
F-250.0
F-250.0
F-250.0
F-250.0
F-250.0
F-250.0
F-250.0
F-250.0
F-2.5999999999996817
F-5.96966688855047
F-0.0
F-250.0
F-250.0
tp1901
sbsbsI186
g2
(g22
g23
(lp1902
F0.04463447281697952
aF0.8921108808888414
aF0.014860550923077219
aF0.0005636521047553763
aF0.007881055745428947
aF0.03447840041986165
aF185.41170432405767
atp1903
Rp1904
(dp1905
g28
I186
sg273
g274
(g278
S'\x00\x00\x00\x00\x00\x00\xf8\x7f'
p1906
tp1907
Rp1908
sg29
g2
(g30
g4
Ntp1909
Rp1910
(dp1911
g34
g35
sg36
(F-250.0
F-250.0
F-250.0
F-250.0
F-250.0
F-250.0
F-250.0
F-250.0
F-250.0
F-250.0
F-250.0
F-250.0
F-250.0
F-250.0
F-250.0
F-250.0
F-250.0
F-250.0
F-250.0
F-250.0
F-250.0
F-250.0
F-250.0
F-250.0
F-250.0
F-250.0
F-250.0
F-250.0
F-250.0
F-250.0
F-250.0
F-250.0
F-100.0
F-250.0
F-250.0
tp1912
sbsbsI187
g2
(g22
g23
(lp1913
F0.06620346720780423
aF0.7631242528494413
aF0.00036481288183833613
aF0.0009718720768930135
aF0.008358436515807258
aF0.017370781884256448
aF33.601951295894494
atp1914
Rp1915
(dp1916
g28
I187
sg273
g274
(g278
S'\x00\x00\x00\x00\x00\x00\xf8\x7f'
p1917
tp1918
Rp1919
sg29
g2
(g30
g4
Ntp1920
Rp1921
(dp1922
g34
g35
sg36
(F-250.0
F-250.0
F-250.0
F-250.0
F-250.0
F-250.0
F-250.0
F-250.0
F-250.0
F-250.0
F-250.0
F-250.0
F-250.0
F-250.0
F-250.0
F-250.0
F-250.0
F-250.0
F-250.0
F-250.0
F-250.0
F-250.0
F-250.0
F-250.0
F-250.0
F-250.0
F-250.0
F-250.0
F-250.0
F-250.0
F-250.0
F-250.0
F-100.0
F-250.0
F-250.0
tp1923
sbsbsI188
g2
(g22
g23
(lp1924
F0.06940657716055709
aF0.7631242528494413
aF0.008691398323597253
aF0.0009609706260279472
aF0.0071537688405685865
aF0.010897252123384224
aF33.83550805870757
atp1925
Rp1926
(dp1927
g28
I188
sg273
g274
(g278
S'\x00\x00\x00\x00\x00\x00\xf8\x7f'
p1928
tp1929
Rp1930
sg29
g2
(g30
g4
Ntp1931
Rp1932
(dp1933
g34
g35
sg36
(F-250.0
F-250.0
F-250.0
F-250.0
F-250.0
F-250.0
F-250.0
F-250.0
F-250.0
F-250.0
F-250.0
F-250.0
F-250.0
F-250.0
F-250.0
F-250.0
F-250.0
F-250.0
F-250.0
F-250.0
F-250.0
F-250.0
F-250.0
F-250.0
F-250.0
F-250.0
F-250.0
F-250.0
F-250.0
F-250.0
F-250.0
F-250.0
F-100.0
F-250.0
F-250.0
tp1934
sbsbsI189
g2
(g22
g23
(lp1935
F0.6699769556202241
aF0.30104340610541447
aF0.0643560430714886
aF0.0003858320995453888
aF0.007432853424888993
aF0.025522556785396937
aF487.16376044613673
atp1936
Rp1937
(dp1938
g28
I189
sg273
g274
(g278
S'\x00\x00\x00\x00\x00\x00\xf8\x7f'
p1939
tp1940
Rp1941
sg29
g2
(g30
g4
Ntp1942
Rp1943
(dp1944
g34
g99
sg36
(F-250.0
F-250.0
F-250.0
F-250.0
F-250.0
F-250.0
F-250.0
F-250.0
F-250.0
F-250.0
F-3.613644275665538
F-250.0
F-250.0
F-250.0
F-250.0
F-3.225648611743105
F-3.2352941177161734
F-11.510004681237316
F-250.0
F-62.01761744913519
F-250.0
F-250.0
F-250.0
F-250.0
F-250.0
F-250.0
F-250.0
F-250.0
F-250.0
F-250.0
F-2.1999999999995907
F-1.7012437152010975
F-0.0
F-250.0
F-250.0
tp1945
sbsbsI190
g2
(g22
g23
(lp1946
F0.7226753576986541
aF0.3939734763348858
aF0.058580323205571
aF0.0002675808495806029
aF0.007868036638815148
aF0.02551708305658522
aF523.2339781298087
atp1947
Rp1948
(dp1949
g28
I190
sg273
g274
(g278
S'\x00\x00\x00\x00\x00\x00\xf8\x7f'
p1950
tp1951
Rp1952
sg29
g2
(g30
g4
Ntp1953
Rp1954
(dp1955
g34
g99
sg36
(F-250.0
F-250.0
F-250.0
F-250.0
F-250.0
F-250.0
F-250.0
F-250.0
F-250.0
F-250.0
F-3.9624834219812226
F-250.0
F-250.0
F-250.0
F-250.0
F-3.225648611743105
F-3.529411764775064
F-11.470710742199257
F-250.0
F-59.82434640472634
F-250.0
F-250.0
F-250.0
F-250.0
F-250.0
F-250.0
F-250.0
F-250.0
F-250.0
F-250.0
F-2.399999999999636
F-1.616919639977644
F-0.0
F-250.0
F-250.0
tp1956
sbsbssbsS'parents'
p1957
(lp1958
g2
(g22
g23
(lp1959
F0.7226753576986541
aF0.3033685109329176
aF0.058580323205571
aF0.0002675808495806029
aF0.00795712006823849
aF0.025511549118690222
aF505.23096032918573
atp1960
Rp1961
(dp1962
g28
I180
sg273
g274
(g278
S'\x00\x00\x00\x00\x00\x00\xf8\x7f'
p1963
tp1964
Rp1965
sg29
g2
(g30
g4
Ntp1966
Rp1967
(dp1968
g34
g99
sg36
g1083
sbsbag2
(g22
g23
(lp1969
F0.18737544220990565
aF0.7613609996383177
aF0.0003208929203728393
aF0.0009694811788454317
aF0.007009413459647592
aF0.03411250928099398
aF59.61197275607174
atp1970
Rp1971
(dp1972
g28
I175
sg273
g274
(g278
S'\x00\x00\x00\x00\x00\x00\xf8\x7f'
p1973
tp1974
Rp1975
sg29
g2
(g30
g4
Ntp1976
Rp1977
(dp1978
g34
g35
sg36
g1658
sbsbag1971
ag2
(g22
g23
(lp1979
F0.06940657716055709
aF0.7631242528494413
aF0.00022802949317822507
aF0.0009697071149057702
aF0.0071537688405685865
aF0.017370781884256448
aF59.614657306623144
atp1980
Rp1981
(dp1982
g28
I178
sg273
g274
(g278
S'\x00\x00\x00\x00\x00\x00\xf8\x7f'
p1983
tp1984
Rp1985
sg29
g2
(g30
g4
Ntp1986
Rp1987
(dp1988
g34
g35
sg36
g1448
sbsbag2
(g22
g23
(lp1989
F0.04861626213813433
aF0.6973757924375997
aF0.00017392316927012774
aF0.0008793147834109882
aF0.006551223447612279
aF0.016435699760253178
aF166.21726131128824
atp1990
Rp1991
(dp1992
g28
I182
sg273
g274
(g278
S'\x00\x00\x00\x00\x00\x00\xf8\x7f'
p1993
tp1994
Rp1995
sg29
g2
(g30
g4
Ntp1996
Rp1997
(dp1998
g34
g35
sg36
g1868
sbsbag2
(g22
g23
(lp1999
F0.06940657716055709
aF0.7631242528494413
aF0.008691398323597253
aF0.0009609706260279472
aF0.0071537688405685865
aF0.010897252123384224
aF33.83550805870757
atp2000
Rp2001
(dp2002
g28
I188
sg273
g274
(g278
S'\x00\x00\x00\x00\x00\x00\xf8\x7f'
p2003
tp2004
Rp2005
sg29
g2
(g30
g4
Ntp2006
Rp2007
(dp2008
g34
g35
sg36
g1934
sbsbag2
(g22
g23
(lp2009
F0.10250654202757714
aF0.7631242528494413
aF0.0027257809847338298
aF0.000987675296461968
aF0.00807296273980482
aF0.01994311927692663
aF480.65394192547984
atp2010
Rp2011
(dp2012
g28
I184
sg273
g274
(g278
S'\x00\x00\x00\x00\x00\x00\xf8\x7f'
p2013
tp2014
Rp2015
sg29
g2
(g30
g4
Ntp2016
Rp2017
(dp2018
g34
g35
sg36
g1890
sbsbag2
(g22
g23
(lp2019
F0.6699769556202241
aF0.30104340610541447
aF0.0643560430714886
aF0.0003858320995453888
aF0.007432853424888993
aF0.025522556785396937
aF487.16376044613673
atp2020
Rp2021
(dp2022
g28
I189
sg273
g274
(g278
S'\x00\x00\x00\x00\x00\x00\xf8\x7f'
p2023
tp2024
Rp2025
sg29
g2
(g30
g4
Ntp2026
Rp2027
(dp2028
g34
g99
sg36
g1945
sbsbag2
(g22
g23
(lp2029
F0.06620346720780423
aF0.7631242528494413
aF0.00036481288183833613
aF0.0009718720768930135
aF0.008358436515807258
aF0.017370781884256448
aF33.601951295894494
atp2030
Rp2031
(dp2032
g28
I187
sg273
g274
(g278
S'\x00\x00\x00\x00\x00\x00\xf8\x7f'
p2033
tp2034
Rp2035
sg29
g2
(g30
g4
Ntp2036
Rp2037
(dp2038
g34
g35
sg36
g1923
sbsbag1981
asS'generation'
p2039
I10
sS'logbook'
p2040
g2
(cdeap.tools.support
Logbook
p2041
g23
(lp2042
(dp2043
S'std'
p2044
g274
(g278
S'\x9c[a\xad\xc7\xb6\xa1@'
p2045
tp2046
Rp2047
sS'nevals'
p2048
I10
sS'min'
p2049
g274
(g278
S'R\xfe\xc5\x9f\xd4\xd8\x84@'
p2050
tp2051
Rp2052
sS'max'
p2053
g274
(g278
S'\x00\x00\x00\x00\x00\xcc\xc0@'
p2054
tp2055
Rp2056
sS'avg'
p2057
g274
(g278
S'\xe6\xf0;7!0\xbc@'
p2058
tp2059
Rp2060
sS'gen'
p2061
I1
sa(dp2062
g2044
g274
(g278
S'\xb00\xe4w\x88\x99\xa1@'
p2063
tp2064
Rp2065
sg2048
I10
sg2049
g274
(g278
S'R\xfe\xc5\x9f\xd4\xd8\x84@'
p2066
tp2067
Rp2068
sg2053
g274
(g278
S'\x00\x00\x00\x00\x00\xcc\xc0@'
p2069
tp2070
Rp2071
sg2057
g274
(g278
S'\xc0\x05Hz\xb2\x12\xbc@'
p2072
tp2073
Rp2074
sg2061
I2
sa(dp2075
g2044
g274
(g278
S'\x18\xa4\x06S\xfa\xe7\x9a@'
p2076
tp2077
Rp2078
sg2048
I10
sg2049
g274
(g278
S'_\xa65}Q\xe1\x84@'
p2079
tp2080
Rp2081
sg2053
g274
(g278
S'\x00\x00\x00\x00\x00\xcc\xc0@'
p2082
tp2083
Rp2084
sg2057
g274
(g278
S'\x08\xc3\x02J\xdfG\xbd@'
p2085
tp2086
Rp2087
sg2061
I3
sa(dp2088
g2044
g274
(g278
S'\xd1\xf9\xe1\xddI\x19\x84@'
p2089
tp2090
Rp2091
sg2048
I10
sg2049
g274
(g278
S'KV\x90;\x84\xaf\xba@'
p2092
tp2093
Rp2094
sg2053
g274
(g278
S'\x00\x00\x00\x00\x00\xcc\xc0@'
p2095
tp2096
Rp2097
sg2057
g274
(g278
S'f?\xe3m\x15\xad\xbd@'
p2098
tp2099
Rp2100
sg2061
I4
sa(dp2101
g2044
g274
(g278
S'\x02\x19\xf0\x18\xfe\xdb\x87@'
p2102
tp2103
Rp2104
sg2048
I10
sg2049
g274
(g278
S'n\x0cB\x96P\x07\xb6@'
p2105
tp2106
Rp2107
sg2053
g274
(g278
S'\x00\x00\x00\x00\x00\xcc\xc0@'
p2108
tp2109
Rp2110
sg2057
g274
(g278
S'V\xbb0\x98\xb86\xbd@'
p2111
tp2112
Rp2113
sg2061
I5
sa(dp2114
g2044
g274
(g278
S'\x0b\xc9c\x0b\xf4\x81\x86@'
p2115
tp2116
Rp2117
sg2048
I10
sg2049
g274
(g278
S'.\xa9\x055h\xb0\xba@'
p2118
tp2119
Rp2120
sg2053
g274
(g278
S'\x00\x00\x00\x00\x00\xcc\xc0@'
p2121
tp2122
Rp2123
sg2057
g274
(g278
S'\x15$\x02\xa7\x13\xae\xbd@'
p2124
tp2125
Rp2126
sg2061
I6
sa(dp2127
g2044
g274
(g278
S"%\x12\xad\x0c\xcf'\x87@"
p2128
tp2129
Rp2130
sg2048
I10
sg2049
g274
(g278
S'\xedU(\xd7r\xb3\xba@'
p2131
tp2132
Rp2133
sg2053
g274
(g278
S'\x00\x00\x00\x00\x00\xcc\xc0@'
p2134
tp2135
Rp2136
sg2057
g274
(g278
S'U\x1a\xf7\xbda\x00\xbd@'
p2137
tp2138
Rp2139
sg2061
I7
sa(dp2140
g2044
g274
(g278
S"s\xad'6\xd1=\x88@"
p2141
tp2142
Rp2143
sg2048
I10
sg2049
g274
(g278
S'[\xf54\xd2\x12\xb3\xba@'
p2144
tp2145
Rp2146
sg2053
g274
(g278
S'\x00\x00\x00\x00\x00\xcc\xc0@'
p2147
tp2148
Rp2149
sg2057
g274
(g278
S'\x00\xa7\x0f\xe7W\xe3\xbc@'
p2150
tp2151
Rp2152
sg2061
I8
sa(dp2153
g2044
g274
(g278
S'X\x95)\xb2\xfa\xac\x8b@'
p2154
tp2155
Rp2156
sg2048
I10
sg2049
g274
(g278
S'@\xa2\xb3W\r\xec\xb5@'
p2157
tp2158
Rp2159
sg2053
g274
(g278
S'\x00\x00\x00\x00\x00\xcc\xc0@'
p2160
tp2161
Rp2162
sg2057
g274
(g278
S'2\xa1\xd4X\x00\x06\xbe@'
p2163
tp2164
Rp2165
sg2061
I9
sa(dp2166
g2044
g274
(g278
S'\xd6_\x1e5Y\xa0\x88@'
p2167
tp2168
Rp2169
sg2048
I10
sg2049
g274
(g278
S'\xdd<\xa9\x8e\x07\xb4\xba@'
p2170
tp2171
Rp2172
sg2053
g274
(g278
S'\x00\x00\x00\x00\x00\xcc\xc0@'
p2173
tp2174
Rp2175
sg2057
g274
(g278
S'CUbB9L\xbf@'
p2176
tp2177
Rp2178
sg2061
I10
satp2179
Rp2180
(dp2181
S'log_header'
p2182
I01
sS'header'
p2183
(lp2184
g2061
ag2048
ag2057
ag2044
ag2049
ag2053
asS'columns_len'
p2185
(lp2186
I3
aI6
aI7
aI7
aI7
aI4
asS'buffindex'
p2187
I10
sS'chapters'
p2188
ccollections
defaultdict
p2189
(g2041
tp2190
Rp2191
sbsS'rndstate'
p2192
(I3
(L299655262L
L790336422L
L758057891L
L384697671L
L61628346L
L1325367381L
L2657966598L
L3449078899L
L4233982707L
L4141297904L
L2962071223L
L1053130263L
L3839356776L
L742016617L
L2665282219L
L1496611876L
L716507096L
L3683926628L
L2174156853L
L473488178L
L391520593L
L585814470L
L3111200129L
L1336668394L
L367894566L
L1075520179L
L878329028L
L2097953010L
L1869020673L
L1501178192L
L2951883280L
L1826941893L
L1904048354L
L1692530179L
L3285592322L
L1304407326L
L3340811562L
L3546840050L
L1967443038L
L731663970L
L3902297179L
L1048157359L
L2464962088L
L3182240306L
L31419408L
L594500727L
L39624173L
L4204819816L
L47441291L
L3417371163L
L3438944171L
L2431092205L
L3434135976L
L1382504842L
L963969186L
L366906425L
L2876510125L
L3079689252L
L1811005893L
L2633649407L
L2193111995L
L603990482L
L1034660120L
L3789082858L
L3454658000L
L1871602132L
L3713117798L
L1930804869L
L1952625955L
L1194558642L
L1822053146L
L1016893319L
L2510013653L
L191828474L
L1364619039L
L2504446169L
L2730742612L
L1702144663L
L2664461730L
L3859884711L
L622989565L
L398918583L
L3294817544L
L2442219622L
L2339852800L
L1051184148L
L150081180L
L1944624534L
L124242512L
L1857380146L
L2965929429L
L1401413601L
L3876478063L
L959654399L
L135798318L
L696157923L
L220437304L
L3587106220L
L230684384L
L1909275500L
L658653482L
L309425203L
L2087383147L
L3564700830L
L2517675206L
L3895715532L
L2377348471L
L392248603L
L1657046508L
L3693401509L
L980702723L
L2555213302L
L1919404866L
L3117604893L
L2251212873L
L1153096314L
L4100932413L
L3812617261L
L1341874040L
L361564605L
L1455313114L
L315982198L
L4027097667L
L3870400320L
L603627546L
L3641652207L
L4286701846L
L2336162037L
L791132722L
L3364331845L
L3208290965L
L976372210L
L202600939L
L2010155647L
L2230051756L
L268188308L
L3728049733L
L3554620958L
L4036977903L
L1618387950L
L3539186512L
L1547639633L
L3716929595L
L989383252L
L316251843L
L904118331L
L919561358L
L2626447454L
L270100874L
L2779017659L
L3058857550L
L4235694421L
L1898950612L
L3396320287L
L162060124L
L2032027000L
L2258469377L
L3716563298L
L568399873L
L1428324566L
L1229280438L
L2463135609L
L618456253L
L3865566142L
L3961459940L
L1992034613L
L943603581L
L2145147025L
L104014707L
L3601719860L
L1165411478L
L3113466120L
L2758661269L
L354226912L
L1933517194L
L937674058L
L753166902L
L3500263752L
L3429674899L
L2785119702L
L1610251961L
L2169110493L
L2304697290L
L540759196L
L761645230L
L343382964L
L1898514561L
L615943342L
L730665385L
L1794045926L
L3082052047L
L1569753337L
L1283309331L
L4038507028L
L22678293L
L562939886L
L4179738220L
L3909525523L
L2588626520L
L2701201826L
L35752227L
L2744445194L
L3787450767L
L2154083287L
L43115612L
L944466076L
L4010144356L
L717764830L
L1970631990L
L3204441481L
L4206424553L
L561297421L
L907348514L
L685867936L
L1752797687L
L2891604699L
L988525207L
L2676805430L
L3622254289L
L3940016943L
L4094823485L
L659028403L
L3811310482L
L2169755650L
L3967088979L
L1384406868L
L2018771264L
L1898627634L
L1490644566L
L2687231294L
L3894759815L
L1195311809L
L1213700581L
L1810020467L
L1951472471L
L188510188L
L1324302796L
L735007585L
L2012596642L
L1682465154L
L352659762L
L2870329204L
L4180397190L
L965772312L
L1248281363L
L542969437L
L1824454846L
L2617624366L
L2472947288L
L3484565431L
L4192206661L
L4090561997L
L183272418L
L2484528667L
L2613156212L
L2805743438L
L3070044488L
L1673999232L
L3923540233L
L778515598L
L211303683L
L769330651L
L3153290564L
L365042252L
L216196526L
L2920038068L
L1000368503L
L447018081L
L2378957737L
L879673759L
L2797772633L
L3610648384L
L3964390677L
L1442723161L
L2225853315L
L3270016965L
L2240743686L
L621979534L
L1115075496L
L3204664373L
L3849570640L
L3751260233L
L3142843966L
L3349723066L
L575258671L
L1690248671L
L298131332L
L3260750103L
L722358372L
L2767387646L
L3000610186L
L3521396152L
L1847361829L
L1829021663L
L2647340786L
L1879849591L
L1183780693L
L791850363L
L2507852088L
L3473510928L
L2478377454L
L1331949913L
L3605379064L
L4113932464L
L1369857926L
L1431450731L
L1464745682L
L1076441972L
L648294161L
L2224870934L
L3332191918L
L1260392429L
L2328517334L
L2124406540L
L1049495413L
L1691243078L
L1519037163L
L835400053L
L3236551012L
L2980552988L
L1404450311L
L3575621659L
L4060345441L
L2481429454L
L2368540450L
L1220844334L
L599968808L
L1629461666L
L3454870198L
L2618287293L
L299577896L
L4247507108L
L2640817809L
L1098471213L
L710892755L
L2822371210L
L3795798039L
L950939728L
L2064678583L
L203969300L
L3714561993L
L1628260473L
L2266140574L
L4276802129L
L268329758L
L2892340953L
L2652260478L
L2682869267L
L1172448386L
L598870987L
L2261089514L
L489282150L
L3495202703L
L2025672829L
L1892175392L
L1193726617L
L4231525365L
L3923207641L
L1391758054L
L3283418339L
L2089257430L
L1470830098L
L2808493124L
L1082833545L
L2389868180L
L2022017804L
L2049359804L
L383443817L
L2690134485L
L918577318L
L3273804588L
L373500228L
L2617465217L
L1788948655L
L3188290074L
L2359003793L
L2378995445L
L1280619543L
L1550199649L
L3202117691L
L3692898611L
L1811130449L
L815316973L
L2611495763L
L3155819579L
L2266843861L
L1122262362L
L2276473545L
L2459426062L
L61491689L
L4092742269L
L2696319556L
L692781557L
L3443691198L
L1878792460L
L168124781L
L1643219022L
L3779306229L
L4102517573L
L2204605782L
L2892080326L
L9820406L
L1540146999L
L3263398283L
L4192225835L
L3933357742L
L2645709417L
L1477372956L
L3976520405L
L1915008913L
L1147463194L
L821345691L
L3188026096L
L119131157L
L2884755367L
L4009536166L
L2497516955L
L1355804471L
L2522389404L
L3289951960L
L2727753589L
L2144699834L
L2794532518L
L2885499669L
L3065274163L
L368578983L
L2218546705L
L2621922036L
L3311321209L
L1987700023L
L1943906334L
L1590546566L
L605581024L
L2284047192L
L3607197094L
L726699662L
L2577408400L
L2515758549L
L1430193266L
L599858032L
L2998905166L
L3211321923L
L4135374477L
L4183704703L
L1499157067L
L1185471337L
L860365887L
L266173854L
L854847636L
L3768644180L
L3945684591L
L385442729L
L1877890964L
L2992583727L
L1207903611L
L3120857L
L3783254227L
L3586325686L
L4028968588L
L1202414217L
L3745920946L
L4061161143L
L304925153L
L3755036250L
L4293494957L
L2595633001L
L1399616146L
L1947770603L
L2458473745L
L1350382732L
L3720195073L
L3146296826L
L1075765211L
L4279854315L
L3867953974L
L3951299522L
L1537069385L
L263152319L
L3691769980L
L558330153L
L1824714327L
L241389068L
L2070343655L
L812168047L
L3190302973L
L1360601357L
L1762636362L
L3816765425L
L185162153L
L394550351L
L19281452L
L1830367360L
L2958870368L
L2818754836L
L2787274275L
L2559029559L
L686501491L
L2851668351L
L1158096141L
L1757540772L
L1878888515L
L431167042L
L1400214681L
L725068591L
L3007575396L
L3493583945L
L3468321648L
L3746925278L
L844966622L
L617206569L
L2773525014L
L305062196L
L3876738085L
L221074521L
L3375050548L
L3256916729L
L668341657L
L2394400987L
L2123135468L
L4096161853L
L2884235518L
L2364258376L
L2776926683L
L1524996418L
L973336968L
L2302723807L
L2685220044L
L1070504716L
L3172062865L
L2030696436L
L2090203472L
L1405782014L
L2542028095L
L3740535398L
L3567298986L
L2748403752L
L2775089383L
L4267998458L
L1309425505L
L2172057728L
L2908938519L
L1252414478L
L4260458706L
L3908488731L
L2610681391L
L2778961239L
L2325112596L
L3605790476L
L485123406L
L3511794657L
L3480089593L
L882080956L
L2437555243L
L301835322L
L1776559349L
L1611589783L
L1866540632L
L1574500934L
L4011371446L
L357165367L
L2787816437L
L790820708L
L267027268L
L703007147L
L313244959L
L1031501183L
L801823456L
L2128090595L
L2571524327L
L2810605586L
L3818323495L
L1214198674L
L2724498861L
L1488776557L
L2367921861L
L1156323022L
L626919242L
L3391392822L
L1608359960L
L2857730555L
L580094760L
L44944048L
L4082016715L
L454135171L
L418743061L
L4016297861L
L2174908114L
L207831135L
L2897190908L
L3731867971L
L2162206715L
L2695893123L
L3588840862L
L390919741L
L2778328019L
L332647639L
L2321248923L
L1159299085L
L763667140L
L1541427182L
L3240656310L
L4110162891L
L3903081344L
L2963578061L
L2960440883L
L3215158617L
L2777293929L
L2870968371L
L4012109450L
L654267551L
L405684807L
L3855720742L
L1681132537L
L2650990748L
L1913698639L
L2328122702L
L3899960271L
L2885647591L
L739345060L
L2314014001L
L1387262484L
L4243777229L
L1577685563L
L689944673L
L466L
tp2193
Ntp2194
sS'halloffame'
p2195
g2
(cdeap.tools.support
HallOfFame
p2196
g4
Ntp2197
Rp2198
(dp2199
S'keys'
p2200
(lp2201
g2
(g30
g4
Ntp2202
Rp2203
(dp2204
g34
g72
sg36
g663
sbag2
(g30
g4
Ntp2205
Rp2206
(dp2207
g34
g99
sg36
g1470
sbag2
(g30
g4
Ntp2208
Rp2209
(dp2210
g34
g72
sg36
g652
sbag2
(g30
g4
Ntp2211
Rp2212
(dp2213
g34
g63
sg36
g1050
sbag2
(g30
g4
Ntp2214
Rp2215
(dp2216
g34
g72
sg36
g398
sbag2
(g30
g4
Ntp2217
Rp2218
(dp2219
g34
g72
sg36
g464
sbag2
(g30
g4
Ntp2220
Rp2221
(dp2222
g34
g72
sg36
g895
sbag2
(g30
g4
Ntp2223
Rp2224
(dp2225
g34
g35
sg36
g1669
sbag2
(g30
g4
Ntp2226
Rp2227
(dp2228
g34
g45
sg36
g204
sbag2
(g30
g4
Ntp2229
Rp2230
(dp2231
g34
g45
sg36
g46
sbasS'items'
p2232
(lp2233
g2
(g22
g23
(lp2234
F0.7887233511355132
aF0.0938595867742349
aF0.002834747652200631
aF0.0008357651039198697
aF0.004327670679050534
aF0.03823286408166813
aF22.06393228408848
atp2235
Rp2236
(dp2237
g29
g2230
sbag2
(g22
g23
(lp2238
F0.7235339093975051
aF0.0938595867742349
aF0.002834747652200631
aF0.0008366048214167003
aF0.004476097746571445
aF0.03950288935323932
aF21.237830876292094
atp2239
Rp2240
(dp2241
g28
I2
sg29
g2227
sbag2
(g22
g23
(lp2242
F0.676353548479786
aF0.6018782094048184
aF0.00022802949317822507
aF0.0006123341577502192
aF0.006559745264121203
aF0.01938759485401076
aF499.96055164000336
atp2243
Rp2244
(dp2245
g28
I136
sg273
g274
(g278
S'\x00\x00\x00\x00\x00\x00\xf8\x7f'
p2246
tp2247
Rp2248
sg29
g2224
sbag2
(g22
g23
(lp2249
F0.6615833127317525
aF0.15552664099278798
aF0.024101164705622496
aF0.00036715043043809425
aF0.002052131256900013
aF0.018559005514929967
aF412.90037877581534
atp2250
Rp2251
(dp2252
g28
I67
sg273
g274
(g278
S'\x00\x00\x00\x00\x00\x00\xf8\x7f'
p2253
tp2254
Rp2255
sg29
g2221
sbag2
(g22
g23
(lp2256
F0.4581178043420606
aF0.37299561179260365
aF0.01759627045462594
aF0.0002308665415409843
aF0.0014538409065915194
aF0.0109492401561183
aF303.9859822986759
atp2257
Rp2258
(dp2259
g28
I15
sg273
g274
(g278
S'\x00\x00\x00\x00\x00\x00\xf8\x7f'
p2260
tp2261
Rp2262
sg29
g2218
sbag2
(g22
g23
(lp2263
F0.6248100250289073
aF0.49581224138185065
aF0.023670127636048307
aF0.0004908320137202313
aF0.0022800298115832392
aF0.023250371554017813
aF303.9859822986759
atp2264
Rp2265
(dp2266
g28
I15
sg273
g274
(g278
S'\x00\x00\x00\x00\x00\x00\xf8\x7f'
p2267
tp2268
Rp2269
sg29
g2215
sbag2
(g22
g23
(lp2270
F0.5415345350814206
aF0.41966628000338646
aF0.03770344510466205
aF0.00021659939713061338
aF0.009194505081538875
aF0.001540542809310357
aF311.12848909688165
atp2271
Rp2272
(dp2273
g28
I72
sg273
g274
(g278
S'\x00\x00\x00\x00\x00\x00\xf8\x7f'
p2274
tp2275
Rp2276
sg29
g2212
sbag2
(g22
g23
(lp2277
F0.7306917332469746
aF0.49581224138185065
aF0.018598872065077307
aF0.000870520872320806
aF0.0021878103733768864
aF0.04672679168066896
aF645.7671444696302
atp2278
Rp2279
(dp2280
g28
I38
sg273
g274
(g278
S'\x00\x00\x00\x00\x00\x00\xf8\x7f'
p2281
tp2282
Rp2283
sg29
g2209
sbag2
(g22
g23
(lp2284
F0.8588932552884444
aF0.5101777344503036
aF0.0585511522958608
aF0.0009594398623160306
aF0.009824198795763097
aF0.02262787274490283
aF597.2222128229007
atp2285
Rp2286
(dp2287
g28
I115
sg273
g274
(g278
S'\x00\x00\x00\x00\x00\x00\xf8\x7f'
p2288
tp2289
Rp2290
sg29
g2206
sbag2
(g22
g23
(lp2291
F0.597364444000435
aF0.3356717302820147
aF0.027513282941430545
aF0.00046608954339151363
aF0.002208008505279363
aF0.023124293780305095
aF303.9859822986759
atp2292
Rp2293
(dp2294
g28
I42
sg273
g274
(g278
S'\x00\x00\x00\x00\x00\x00\xf8\x7f'
p2295
tp2296
Rp2297
sg29
g2203
sbasS'maxsize'
p2298
I10
sS'similar'
p2299
coperator
eq
p2300
sbsS'population'
p2301
(lp2302
g1981
ag2
(g22
g23
(lp2303
F0.04861626213813433
aF0.7540065326574457
aF0.014325507548037884
aF0.0006123341577502192
aF0.006559745264121203
aF0.027138154023730342
aF154.39651155219795
atp2304
Rp2305
(dp2306
g28
I172
sg273
g274
(g278
S'\x00\x00\x00\x00\x00\x00\xf8\x7f'
p2307
tp2308
Rp2309
sg29
g2
(g30
g4
Ntp2310
Rp2311
(dp2312
g34
g35
sg36
g1315
sbsbag2
(g22
g23
(lp2313
F0.7665168586219983
aF0.30337013168457316
aF0.059572671255792575
aF0.0002560336920400702
aF0.007857032599775934
aF0.025511549118690222
aF505.23096032918573
atp2314
Rp2315
(dp2316
g28
I173
sg273
g274
(g278
S'\x00\x00\x00\x00\x00\x00\xf8\x7f'
p2317
tp2318
Rp2319
sg29
g2
(g30
g4
Ntp2320
Rp2321
(dp2322
g34
g99
sg36
g1514
sbsbag1981
ag1971
ag2
(g22
g23
(lp2323
F0.04861626213813433
aF0.8351455705644449
aF0.014851060798530045
aF0.0005636521047553763
aF0.00629301702557249
aF0.0293773177685466
aF60.19649712602105
atp2324
Rp2325
(dp2326
g28
I176
sg273
g274
(g278
S'\x00\x00\x00\x00\x00\x00\xf8\x7f'
p2327
tp2328
Rp2329
sg29
g2
(g30
g4
Ntp2330
Rp2331
(dp2332
g34
g35
sg36
g1481
sbsbag1981
ag1981
ag2
(g22
g23
(lp2333
F0.7212848180403857
aF0.3033685109329176
aF0.058580323205571
aF0.00036985391436616336
aF0.006735776031433221
aF0.025624835446594503
aF494.8014973985108
atp2334
Rp2335
(dp2336
g28
I179
sg273
g274
(g278
S'\x00\x00\x00\x00\x00\x00\xf8\x7f'
p2337
tp2338
Rp2339
sg29
g2
(g30
g4
Ntp2340
Rp2341
(dp2342
g34
g99
sg36
g1746
sbsbag1961
ag2
(g22
g23
(lp2343
F0.06940657716055709
aF0.7627203811898534
aF0.014923123276546723
aF0.0005460351810412152
aF0.007162290657077382
aF0.02970487874476681
aF58.00505024189063
atp2344
Rp2345
(dp2346
g28
I181
sg273
g274
(g278
S'\x00\x00\x00\x00\x00\x00\xf8\x7f'
p2347
tp2348
Rp2349
sg29
g2
(g30
g4
Ntp2350
Rp2351
(dp2352
g34
g35
sg36
g1857
sbsbag1991
ag2
(g22
g23
(lp2353
F0.7759146979984123
aF0.32698970982664877
aF0.05863865179843361
aF0.0002560336920400702
aF0.007857032599775934
aF0.02050545725100424
aF316.641489949522
atp2354
Rp2355
(dp2356
g28
I183
sg273
g274
(g278
S'\x00\x00\x00\x00\x00\x00\xf8\x7f'
p2357
tp2358
Rp2359
sg29
g2
(g30
g4
Ntp2360
Rp2361
(dp2362
g34
g99
sg36
g1879
sbsbag2011
ag2
(g22
g23
(lp2363
F0.18262468636720786
aF0.7613609996383177
aF0.0002183623191066202
aF0.0009694811788454317
aF0.006785469340947328
aF0.03411250928099398
aF59.61197275607174
atp2364
Rp2365
(dp2366
g28
I185
sg273
g274
(g278
S'\x00\x00\x00\x00\x00\x00\xf8\x7f'
p2367
tp2368
Rp2369
sg29
g2
(g30
g4
Ntp2370
Rp2371
(dp2372
g34
g35
sg36
g1901
sbsbag2
(g22
g23
(lp2373
F0.04463447281697952
aF0.8921108808888414
aF0.014860550923077219
aF0.0005636521047553763
aF0.007881055745428947
aF0.03447840041986165
aF185.41170432405767
atp2374
Rp2375
(dp2376
g28
I186
sg273
g274
(g278
S'\x00\x00\x00\x00\x00\x00\xf8\x7f'
p2377
tp2378
Rp2379
sg29
g2
(g30
g4
Ntp2380
Rp2381
(dp2382
g34
g35
sg36
g1912
sbsbag2031
ag2001
ag2021
ag2
(g22
g23
(lp2383
F0.7226753576986541
aF0.3939734763348858
aF0.058580323205571
aF0.0002675808495806029
aF0.007868036638815148
aF0.02551708305658522
aF523.2339781298087
atp2384
Rp2385
(dp2386
g28
I190
sg273
g274
(g278
S'\x00\x00\x00\x00\x00\x00\xf8\x7f'
p2387
tp2388
Rp2389
sg29
g2
(g30
g4
Ntp2390
Rp2391
(dp2392
g34
g99
sg36
g1956
sbsbas.